(lp0
(dp1
S'binary'
p2
(lp3
F0.8780487804878049
asS'test_data'
p4
(lp5
S'/Users/laura/Repositories/HandwritingRecognition/data/labels/Stanford-CCCC_0002.words'
p6
asS'validation'
p7
(lp8
F0.8780487804878049
asS'train_data'
p9
(lp10
S'/Users/laura/Repositories/HandwritingRecognition/data/labels/Stanford-CCCC_0004.words'
p11
aS'/Users/laura/Repositories/HandwritingRecognition/data/labels/Stanford-CCCC_0006.words'
p12
aS'/Users/laura/Repositories/HandwritingRecognition/data/labels/Stanford-CCCC_0008.words'
p13
aS'/Users/laura/Repositories/HandwritingRecognition/data/labels/Stanford-CCCC_0010.words'
p14
aS'/Users/laura/Repositories/HandwritingRecognition/data/labels/Stanford-CCCC_0012.words'
p15
aS'/Users/laura/Repositories/HandwritingRecognition/data/labels/Stanford-CCCC_0014.words'
p16
aS'/Users/laura/Repositories/HandwritingRecognition/data/labels/Stanford-CCCC_0016.words'
p17
aS'/Users/laura/Repositories/HandwritingRecognition/data/labels/Stanford-CCCC_0018.words'
p18
aS'/Users/laura/Repositories/HandwritingRecognition/data/labels/Stanford-CCCC_0020.words'
p19
aS'/Users/laura/Repositories/HandwritingRecognition/data/labels/Stanford-CCCC_0022.words'
p20
aS'/Users/laura/Repositories/HandwritingRecognition/data/labels/Stanford-CCCC_0024.words'
p21
aS'/Users/laura/Repositories/HandwritingRecognition/data/labels/Stanford-CCCC_0026.words'
p22
aS'/Users/laura/Repositories/HandwritingRecognition/data/labels/Stanford-CCCC_0028.words'
p23
aS'/Users/laura/Repositories/HandwritingRecognition/data/labels/Stanford-CCCC_0030.words'
p24
aS'/Users/laura/Repositories/HandwritingRecognition/data/labels/Stanford-CCCC_0032.words'
p25
aS'/Users/laura/Repositories/HandwritingRecognition/data/labels/Stanford-CCCC_0034.words'
p26
aS'/Users/laura/Repositories/HandwritingRecognition/data/labels/Stanford-CCCC_0036.words'
p27
aS'/Users/laura/Repositories/HandwritingRecognition/data/labels/Stanford-CCCC_0038.words'
p28
aS'/Users/laura/Repositories/HandwritingRecognition/data/labels/Stanford-CCCC_0040.words'
p29
aS'/Users/laura/Repositories/HandwritingRecognition/data/labels/Stanford-CCCC_0042.words'
p30
aS'/Users/laura/Repositories/HandwritingRecognition/data/labels/Stanford-CCCC_0044.words'
p31
aS'/Users/laura/Repositories/HandwritingRecognition/data/labels/Stanford-CCCC_0046.words'
p32
aS'/Users/laura/Repositories/HandwritingRecognition/data/labels/Stanford-CCCC_0048.words'
p33
aS'/Users/laura/Repositories/HandwritingRecognition/data/labels/Stanford-CCCC_0050.words'
p34
aS'/Users/laura/Repositories/HandwritingRecognition/data/labels/Stanford-CCCC_0052.words'
p35
aS'/Users/laura/Repositories/HandwritingRecognition/data/labels/Stanford-CCCC_0054.words'
p36
aS'/Users/laura/Repositories/HandwritingRecognition/data/labels/Stanford-CCCC_0056.words'
p37
aS'/Users/laura/Repositories/HandwritingRecognition/data/labels/Stanford-CCCC_0058.words'
p38
aS'/Users/laura/Repositories/HandwritingRecognition/data/labels/Stanford-CCCC_0060.words'
p39
aS'/Users/laura/Repositories/HandwritingRecognition/data/labels/Stanford-CCCC_0062.words'
p40
aS'/Users/laura/Repositories/HandwritingRecognition/data/labels/Stanford-CCCC_0064.words'
p41
aS'/Users/laura/Repositories/HandwritingRecognition/data/labels/Stanford-CCCC_0066.words'
p42
aS'/Users/laura/Repositories/HandwritingRecognition/data/labels/Stanford-CCCC_0068.words'
p43
aS'/Users/laura/Repositories/HandwritingRecognition/data/labels/Stanford-CCCC_0070.words'
p44
aS'/Users/laura/Repositories/HandwritingRecognition/data/labels/Stanford-CCCC_0072.words'
p45
aS'/Users/laura/Repositories/HandwritingRecognition/data/labels/Stanford-CCCC_0074.words'
p46
aS'/Users/laura/Repositories/HandwritingRecognition/data/labels/Stanford-CCCC_0076.words'
p47
aS'/Users/laura/Repositories/HandwritingRecognition/data/labels/Stanford-CCCC_0078.words'
p48
aS'/Users/laura/Repositories/HandwritingRecognition/data/labels/Stanford-CCCC_0080.words'
p49
aS'/Users/laura/Repositories/HandwritingRecognition/data/labels/Stanford-CCCC_0082.words'
p50
aS'/Users/laura/Repositories/HandwritingRecognition/data/labels/Stanford-CCCC_0084.words'
p51
aS'/Users/laura/Repositories/HandwritingRecognition/data/labels/Stanford-CCCC_0086.words'
p52
aS'/Users/laura/Repositories/HandwritingRecognition/data/labels/Stanford-CCCC_0088.words'
p53
aS'/Users/laura/Repositories/HandwritingRecognition/data/labels/Stanford-CCCC_0090.words'
p54
aS'/Users/laura/Repositories/HandwritingRecognition/data/labels/Stanford-CCCC_0092.words'
p55
asa(dp56
g2
(lp57
F0.4651162790697675
asg4
(lp58
g11
asg7
(lp59
F0.4651162790697675
asg9
(lp60
g6
ag12
ag13
ag14
ag15
ag16
ag17
ag18
ag19
ag20
ag21
ag22
ag23
ag24
ag25
ag26
ag27
ag28
ag29
ag30
ag31
ag32
ag33
ag34
ag35
ag36
ag37
ag38
ag39
ag40
ag41
ag42
ag43
ag44
ag45
ag46
ag47
ag48
ag49
ag50
ag51
ag52
ag53
ag54
ag55
asa(dp61
g2
(lp62
F0.6666666666666667
asg4
(lp63
g12
asg7
(lp64
F0.6111111111111112
asg9
(lp65
g6
ag11
ag13
ag14
ag15
ag16
ag17
ag18
ag19
ag20
ag21
ag22
ag23
ag24
ag25
ag26
ag27
ag28
ag29
ag30
ag31
ag32
ag33
ag34
ag35
ag36
ag37
ag38
ag39
ag40
ag41
ag42
ag43
ag44
ag45
ag46
ag47
ag48
ag49
ag50
ag51
ag52
ag53
ag54
ag55
asa(dp66
g2
(lp67
F0.5789473684210527
asg4
(lp68
g13
asg7
(lp69
F0.4736842105263158
asg9
(lp70
g6
ag11
ag12
ag14
ag15
ag16
ag17
ag18
ag19
ag20
ag21
ag22
ag23
ag24
ag25
ag26
ag27
ag28
ag29
ag30
ag31
ag32
ag33
ag34
ag35
ag36
ag37
ag38
ag39
ag40
ag41
ag42
ag43
ag44
ag45
ag46
ag47
ag48
ag49
ag50
ag51
ag52
ag53
ag54
ag55
asa(dp71
g2
(lp72
F0.25
asg4
(lp73
g14
asg7
(lp74
F0.33333333333333337
asg9
(lp75
g6
ag11
ag12
ag13
ag15
ag16
ag17
ag18
ag19
ag20
ag21
ag22
ag23
ag24
ag25
ag26
ag27
ag28
ag29
ag30
ag31
ag32
ag33
ag34
ag35
ag36
ag37
ag38
ag39
ag40
ag41
ag42
ag43
ag44
ag45
ag46
ag47
ag48
ag49
ag50
ag51
ag52
ag53
ag54
ag55
asa(dp76
g2
(lp77
F0.5
asg4
(lp78
g15
asg7
(lp79
F0.2142857142857143
asg9
(lp80
g6
ag11
ag12
ag13
ag14
ag16
ag17
ag18
ag19
ag20
ag21
ag22
ag23
ag24
ag25
ag26
ag27
ag28
ag29
ag30
ag31
ag32
ag33
ag34
ag35
ag36
ag37
ag38
ag39
ag40
ag41
ag42
ag43
ag44
ag45
ag46
ag47
ag48
ag49
ag50
ag51
ag52
ag53
ag54
ag55
asa(dp81
g2
(lp82
F0.72
asg4
(lp83
g16
asg7
(lp84
F0.64
asg9
(lp85
g6
ag11
ag12
ag13
ag14
ag15
ag17
ag18
ag19
ag20
ag21
ag22
ag23
ag24
ag25
ag26
ag27
ag28
ag29
ag30
ag31
ag32
ag33
ag34
ag35
ag36
ag37
ag38
ag39
ag40
ag41
ag42
ag43
ag44
ag45
ag46
ag47
ag48
ag49
ag50
ag51
ag52
ag53
ag54
ag55
asa(dp86
g2
(lp87
F0.5
asg4
(lp88
g17
asg7
(lp89
F0.42307692307692313
asg9
(lp90
g6
ag11
ag12
ag13
ag14
ag15
ag16
ag18
ag19
ag20
ag21
ag22
ag23
ag24
ag25
ag26
ag27
ag28
ag29
ag30
ag31
ag32
ag33
ag34
ag35
ag36
ag37
ag38
ag39
ag40
ag41
ag42
ag43
ag44
ag45
ag46
ag47
ag48
ag49
ag50
ag51
ag52
ag53
ag54
ag55
asa(dp91
g2
(lp92
F0.55
asg4
(lp93
g18
asg7
(lp94
F0.4666666666666667
asg9
(lp95
g6
ag11
ag12
ag13
ag14
ag15
ag16
ag17
ag19
ag20
ag21
ag22
ag23
ag24
ag25
ag26
ag27
ag28
ag29
ag30
ag31
ag32
ag33
ag34
ag35
ag36
ag37
ag38
ag39
ag40
ag41
ag42
ag43
ag44
ag45
ag46
ag47
ag48
ag49
ag50
ag51
ag52
ag53
ag54
ag55
asa(dp96
g2
(lp97
F0.4878048780487805
asg4
(lp98
g19
asg7
(lp99
F0.41463414634146345
asg9
(lp100
g6
ag11
ag12
ag13
ag14
ag15
ag16
ag17
ag18
ag20
ag21
ag22
ag23
ag24
ag25
ag26
ag27
ag28
ag29
ag30
ag31
ag32
ag33
ag34
ag35
ag36
ag37
ag38
ag39
ag40
ag41
ag42
ag43
ag44
ag45
ag46
ag47
ag48
ag49
ag50
ag51
ag52
ag53
ag54
ag55
asa(dp101
g2
(lp102
F0.6666666666666667
asg4
(lp103
g20
asg7
(lp104
F0.5714285714285714
asg9
(lp105
g6
ag11
ag12
ag13
ag14
ag15
ag16
ag17
ag18
ag19
ag21
ag22
ag23
ag24
ag25
ag26
ag27
ag28
ag29
ag30
ag31
ag32
ag33
ag34
ag35
ag36
ag37
ag38
ag39
ag40
ag41
ag42
ag43
ag44
ag45
ag46
ag47
ag48
ag49
ag50
ag51
ag52
ag53
ag54
ag55
asa(dp106
g2
(lp107
F0.7142857142857143
asg4
(lp108
g21
asg7
(lp109
F0.7142857142857143
asg9
(lp110
g6
ag11
ag12
ag13
ag14
ag15
ag16
ag17
ag18
ag19
ag20
ag22
ag23
ag24
ag25
ag26
ag27
ag28
ag29
ag30
ag31
ag32
ag33
ag34
ag35
ag36
ag37
ag38
ag39
ag40
ag41
ag42
ag43
ag44
ag45
ag46
ag47
ag48
ag49
ag50
ag51
ag52
ag53
ag54
ag55
asa(dp111
g2
(lp112
F0.7
asg4
(lp113
g22
asg7
(lp114
F0.6
asg9
(lp115
g6
ag11
ag12
ag13
ag14
ag15
ag16
ag17
ag18
ag19
ag20
ag21
ag23
ag24
ag25
ag26
ag27
ag28
ag29
ag30
ag31
ag32
ag33
ag34
ag35
ag36
ag37
ag38
ag39
ag40
ag41
ag42
ag43
ag44
ag45
ag46
ag47
ag48
ag49
ag50
ag51
ag52
ag53
ag54
ag55
asa(dp116
g2
(lp117
F0.6666666666666667
asg4
(lp118
g23
asg7
(lp119
F0.6666666666666667
asg9
(lp120
g6
ag11
ag12
ag13
ag14
ag15
ag16
ag17
ag18
ag19
ag20
ag21
ag22
ag24
ag25
ag26
ag27
ag28
ag29
ag30
ag31
ag32
ag33
ag34
ag35
ag36
ag37
ag38
ag39
ag40
ag41
ag42
ag43
ag44
ag45
ag46
ag47
ag48
ag49
ag50
ag51
ag52
ag53
ag54
ag55
asa(dp121
g2
(lp122
F0.6176470588235294
asg4
(lp123
g24
asg7
(lp124
F0.4117647058823529
asg9
(lp125
g6
ag11
ag12
ag13
ag14
ag15
ag16
ag17
ag18
ag19
ag20
ag21
ag22
ag23
ag25
ag26
ag27
ag28
ag29
ag30
ag31
ag32
ag33
ag34
ag35
ag36
ag37
ag38
ag39
ag40
ag41
ag42
ag43
ag44
ag45
ag46
ag47
ag48
ag49
ag50
ag51
ag52
ag53
ag54
ag55
asa(dp126
g2
(lp127
F0.7777777777777778
asg4
(lp128
g25
asg7
(lp129
F0.5555555555555556
asg9
(lp130
g6
ag11
ag12
ag13
ag14
ag15
ag16
ag17
ag18
ag19
ag20
ag21
ag22
ag23
ag24
ag26
ag27
ag28
ag29
ag30
ag31
ag32
ag33
ag34
ag35
ag36
ag37
ag38
ag39
ag40
ag41
ag42
ag43
ag44
ag45
ag46
ag47
ag48
ag49
ag50
ag51
ag52
ag53
ag54
ag55
asa(dp131
g2
(lp132
F0.5
asg4
(lp133
g26
asg7
(lp134
F0.5625
asg9
(lp135
g6
ag11
ag12
ag13
ag14
ag15
ag16
ag17
ag18
ag19
ag20
ag21
ag22
ag23
ag24
ag25
ag27
ag28
ag29
ag30
ag31
ag32
ag33
ag34
ag35
ag36
ag37
ag38
ag39
ag40
ag41
ag42
ag43
ag44
ag45
ag46
ag47
ag48
ag49
ag50
ag51
ag52
ag53
ag54
ag55
asa(dp136
g2
(lp137
F0.5625
asg4
(lp138
g27
asg7
(lp139
F0.375
asg9
(lp140
g6
ag11
ag12
ag13
ag14
ag15
ag16
ag17
ag18
ag19
ag20
ag21
ag22
ag23
ag24
ag25
ag26
ag28
ag29
ag30
ag31
ag32
ag33
ag34
ag35
ag36
ag37
ag38
ag39
ag40
ag41
ag42
ag43
ag44
ag45
ag46
ag47
ag48
ag49
ag50
ag51
ag52
ag53
ag54
ag55
asa(dp141
g2
(lp142
F0.631578947368421
asg4
(lp143
g28
asg7
(lp144
F0.4736842105263158
asg9
(lp145
g6
ag11
ag12
ag13
ag14
ag15
ag16
ag17
ag18
ag19
ag20
ag21
ag22
ag23
ag24
ag25
ag26
ag27
ag29
ag30
ag31
ag32
ag33
ag34
ag35
ag36
ag37
ag38
ag39
ag40
ag41
ag42
ag43
ag44
ag45
ag46
ag47
ag48
ag49
ag50
ag51
ag52
ag53
ag54
ag55
asa(dp146
g2
(lp147
F0.625
asg4
(lp148
g29
asg7
(lp149
F0.40625
asg9
(lp150
g6
ag11
ag12
ag13
ag14
ag15
ag16
ag17
ag18
ag19
ag20
ag21
ag22
ag23
ag24
ag25
ag26
ag27
ag28
ag30
ag31
ag32
ag33
ag34
ag35
ag36
ag37
ag38
ag39
ag40
ag41
ag42
ag43
ag44
ag45
ag46
ag47
ag48
ag49
ag50
ag51
ag52
ag53
ag54
ag55
asa(dp151
g2
(lp152
F0.375
asg4
(lp153
g30
asg7
(lp154
F0.3125
asg9
(lp155
g6
ag11
ag12
ag13
ag14
ag15
ag16
ag17
ag18
ag19
ag20
ag21
ag22
ag23
ag24
ag25
ag26
ag27
ag28
ag29
ag31
ag32
ag33
ag34
ag35
ag36
ag37
ag38
ag39
ag40
ag41
ag42
ag43
ag44
ag45
ag46
ag47
ag48
ag49
ag50
ag51
ag52
ag53
ag54
ag55
asa(dp156
g2
(lp157
F0.5
asg4
(lp158
g31
asg7
(lp159
F0.5
asg9
(lp160
g6
ag11
ag12
ag13
ag14
ag15
ag16
ag17
ag18
ag19
ag20
ag21
ag22
ag23
ag24
ag25
ag26
ag27
ag28
ag29
ag30
ag32
ag33
ag34
ag35
ag36
ag37
ag38
ag39
ag40
ag41
ag42
ag43
ag44
ag45
ag46
ag47
ag48
ag49
ag50
ag51
ag52
ag53
ag54
ag55
asa(dp161
g2
(lp162
F1.0
asg4
(lp163
g32
asg7
(lp164
F0.9545454545454546
asg9
(lp165
g6
ag11
ag12
ag13
ag14
ag15
ag16
ag17
ag18
ag19
ag20
ag21
ag22
ag23
ag24
ag25
ag26
ag27
ag28
ag29
ag30
ag31
ag33
ag34
ag35
ag36
ag37
ag38
ag39
ag40
ag41
ag42
ag43
ag44
ag45
ag46
ag47
ag48
ag49
ag50
ag51
ag52
ag53
ag54
ag55
asa(dp166
g2
(lp167
F0.6333333333333333
asg4
(lp168
g33
asg7
(lp169
F0.6666666666666667
asg9
(lp170
g6
ag11
ag12
ag13
ag14
ag15
ag16
ag17
ag18
ag19
ag20
ag21
ag22
ag23
ag24
ag25
ag26
ag27
ag28
ag29
ag30
ag31
ag32
ag34
ag35
ag36
ag37
ag38
ag39
ag40
ag41
ag42
ag43
ag44
ag45
ag46
ag47
ag48
ag49
ag50
ag51
ag52
ag53
ag54
ag55
asa(dp171
g2
(lp172
F0.5384615384615384
asg4
(lp173
g34
asg7
(lp174
F0.5384615384615384
asg9
(lp175
g6
ag11
ag12
ag13
ag14
ag15
ag16
ag17
ag18
ag19
ag20
ag21
ag22
ag23
ag24
ag25
ag26
ag27
ag28
ag29
ag30
ag31
ag32
ag33
ag35
ag36
ag37
ag38
ag39
ag40
ag41
ag42
ag43
ag44
ag45
ag46
ag47
ag48
ag49
ag50
ag51
ag52
ag53
ag54
ag55
asa(dp176
g2
(lp177
F0.7441860465116279
asg4
(lp178
g35
asg7
(lp179
F0.7325581395348837
asg9
(lp180
g6
ag11
ag12
ag13
ag14
ag15
ag16
ag17
ag18
ag19
ag20
ag21
ag22
ag23
ag24
ag25
ag26
ag27
ag28
ag29
ag30
ag31
ag32
ag33
ag34
ag36
ag37
ag38
ag39
ag40
ag41
ag42
ag43
ag44
ag45
ag46
ag47
ag48
ag49
ag50
ag51
ag52
ag53
ag54
ag55
asa(dp181
g2
(lp182
F0.4375
asg4
(lp183
g36
asg7
(lp184
F0.5625
asg9
(lp185
g6
ag11
ag12
ag13
ag14
ag15
ag16
ag17
ag18
ag19
ag20
ag21
ag22
ag23
ag24
ag25
ag26
ag27
ag28
ag29
ag30
ag31
ag32
ag33
ag34
ag35
ag37
ag38
ag39
ag40
ag41
ag42
ag43
ag44
ag45
ag46
ag47
ag48
ag49
ag50
ag51
ag52
ag53
ag54
ag55
asa(dp186
g2
(lp187
F0.7941176470588236
asg4
(lp188
g37
asg7
(lp189
F0.7647058823529411
asg9
(lp190
g6
ag11
ag12
ag13
ag14
ag15
ag16
ag17
ag18
ag19
ag20
ag21
ag22
ag23
ag24
ag25
ag26
ag27
ag28
ag29
ag30
ag31
ag32
ag33
ag34
ag35
ag36
ag38
ag39
ag40
ag41
ag42
ag43
ag44
ag45
ag46
ag47
ag48
ag49
ag50
ag51
ag52
ag53
ag54
ag55
asa(dp191
g2
(lp192
F0.8055555555555556
asg4
(lp193
g38
asg7
(lp194
F0.7916666666666666
asg9
(lp195
g6
ag11
ag12
ag13
ag14
ag15
ag16
ag17
ag18
ag19
ag20
ag21
ag22
ag23
ag24
ag25
ag26
ag27
ag28
ag29
ag30
ag31
ag32
ag33
ag34
ag35
ag36
ag37
ag39
ag40
ag41
ag42
ag43
ag44
ag45
ag46
ag47
ag48
ag49
ag50
ag51
ag52
ag53
ag54
ag55
asa(dp196
g2
(lp197
F0.8181818181818181
asg4
(lp198
g39
asg7
(lp199
F0.8181818181818181
asg9
(lp200
g6
ag11
ag12
ag13
ag14
ag15
ag16
ag17
ag18
ag19
ag20
ag21
ag22
ag23
ag24
ag25
ag26
ag27
ag28
ag29
ag30
ag31
ag32
ag33
ag34
ag35
ag36
ag37
ag38
ag40
ag41
ag42
ag43
ag44
ag45
ag46
ag47
ag48
ag49
ag50
ag51
ag52
ag53
ag54
ag55
asa(dp201
g2
(lp202
F0.7804878048780488
asg4
(lp203
g40
asg7
(lp204
F0.7804878048780488
asg9
(lp205
g6
ag11
ag12
ag13
ag14
ag15
ag16
ag17
ag18
ag19
ag20
ag21
ag22
ag23
ag24
ag25
ag26
ag27
ag28
ag29
ag30
ag31
ag32
ag33
ag34
ag35
ag36
ag37
ag38
ag39
ag41
ag42
ag43
ag44
ag45
ag46
ag47
ag48
ag49
ag50
ag51
ag52
ag53
ag54
ag55
asa(dp206
g2
(lp207
F0.8666666666666667
asg4
(lp208
g41
asg7
(lp209
F0.8
asg9
(lp210
g6
ag11
ag12
ag13
ag14
ag15
ag16
ag17
ag18
ag19
ag20
ag21
ag22
ag23
ag24
ag25
ag26
ag27
ag28
ag29
ag30
ag31
ag32
ag33
ag34
ag35
ag36
ag37
ag38
ag39
ag40
ag42
ag43
ag44
ag45
ag46
ag47
ag48
ag49
ag50
ag51
ag52
ag53
ag54
ag55
asa(dp211
g2
(lp212
F0.8260869565217391
asg4
(lp213
g42
asg7
(lp214
F0.9565217391304348
asg9
(lp215
g6
ag11
ag12
ag13
ag14
ag15
ag16
ag17
ag18
ag19
ag20
ag21
ag22
ag23
ag24
ag25
ag26
ag27
ag28
ag29
ag30
ag31
ag32
ag33
ag34
ag35
ag36
ag37
ag38
ag39
ag40
ag41
ag43
ag44
ag45
ag46
ag47
ag48
ag49
ag50
ag51
ag52
ag53
ag54
ag55
asa(dp216
g2
(lp217
F0.8076923076923077
asg4
(lp218
g43
asg7
(lp219
F0.7307692307692308
asg9
(lp220
g6
ag11
ag12
ag13
ag14
ag15
ag16
ag17
ag18
ag19
ag20
ag21
ag22
ag23
ag24
ag25
ag26
ag27
ag28
ag29
ag30
ag31
ag32
ag33
ag34
ag35
ag36
ag37
ag38
ag39
ag40
ag41
ag42
ag44
ag45
ag46
ag47
ag48
ag49
ag50
ag51
ag52
ag53
ag54
ag55
asa(dp221
g2
(lp222
F0.8888888888888888
asg4
(lp223
g44
asg7
(lp224
F0.8888888888888888
asg9
(lp225
g6
ag11
ag12
ag13
ag14
ag15
ag16
ag17
ag18
ag19
ag20
ag21
ag22
ag23
ag24
ag25
ag26
ag27
ag28
ag29
ag30
ag31
ag32
ag33
ag34
ag35
ag36
ag37
ag38
ag39
ag40
ag41
ag42
ag43
ag45
ag46
ag47
ag48
ag49
ag50
ag51
ag52
ag53
ag54
ag55
asa(dp226
g2
(lp227
F0.7222222222222222
asg4
(lp228
g45
asg7
(lp229
F0.7222222222222222
asg9
(lp230
g6
ag11
ag12
ag13
ag14
ag15
ag16
ag17
ag18
ag19
ag20
ag21
ag22
ag23
ag24
ag25
ag26
ag27
ag28
ag29
ag30
ag31
ag32
ag33
ag34
ag35
ag36
ag37
ag38
ag39
ag40
ag41
ag42
ag43
ag44
ag46
ag47
ag48
ag49
ag50
ag51
ag52
ag53
ag54
ag55
asa(dp231
g2
(lp232
F1.0
asg4
(lp233
g46
asg7
(lp234
F1.0
asg9
(lp235
g6
ag11
ag12
ag13
ag14
ag15
ag16
ag17
ag18
ag19
ag20
ag21
ag22
ag23
ag24
ag25
ag26
ag27
ag28
ag29
ag30
ag31
ag32
ag33
ag34
ag35
ag36
ag37
ag38
ag39
ag40
ag41
ag42
ag43
ag44
ag45
ag47
ag48
ag49
ag50
ag51
ag52
ag53
ag54
ag55
asa(dp236
g2
(lp237
F0.95
asg4
(lp238
g47
asg7
(lp239
F0.95
asg9
(lp240
g6
ag11
ag12
ag13
ag14
ag15
ag16
ag17
ag18
ag19
ag20
ag21
ag22
ag23
ag24
ag25
ag26
ag27
ag28
ag29
ag30
ag31
ag32
ag33
ag34
ag35
ag36
ag37
ag38
ag39
ag40
ag41
ag42
ag43
ag44
ag45
ag46
ag48
ag49
ag50
ag51
ag52
ag53
ag54
ag55
asa(dp241
g2
(lp242
F0.75
asg4
(lp243
g48
asg7
(lp244
F0.7916666666666666
asg9
(lp245
g6
ag11
ag12
ag13
ag14
ag15
ag16
ag17
ag18
ag19
ag20
ag21
ag22
ag23
ag24
ag25
ag26
ag27
ag28
ag29
ag30
ag31
ag32
ag33
ag34
ag35
ag36
ag37
ag38
ag39
ag40
ag41
ag42
ag43
ag44
ag45
ag46
ag47
ag49
ag50
ag51
ag52
ag53
ag54
ag55
asa(dp246
g2
(lp247
F1.0
asg4
(lp248
g49
asg7
(lp249
F0.9444444444444444
asg9
(lp250
g6
ag11
ag12
ag13
ag14
ag15
ag16
ag17
ag18
ag19
ag20
ag21
ag22
ag23
ag24
ag25
ag26
ag27
ag28
ag29
ag30
ag31
ag32
ag33
ag34
ag35
ag36
ag37
ag38
ag39
ag40
ag41
ag42
ag43
ag44
ag45
ag46
ag47
ag48
ag50
ag51
ag52
ag53
ag54
ag55
asa(dp251
g2
(lp252
F0.7307692307692308
asg4
(lp253
g50
asg7
(lp254
F0.6923076923076923
asg9
(lp255
g6
ag11
ag12
ag13
ag14
ag15
ag16
ag17
ag18
ag19
ag20
ag21
ag22
ag23
ag24
ag25
ag26
ag27
ag28
ag29
ag30
ag31
ag32
ag33
ag34
ag35
ag36
ag37
ag38
ag39
ag40
ag41
ag42
ag43
ag44
ag45
ag46
ag47
ag48
ag49
ag51
ag52
ag53
ag54
ag55
asa(dp256
g2
(lp257
F0.4375
asg4
(lp258
g51
asg7
(lp259
F0.5625
asg9
(lp260
g6
ag11
ag12
ag13
ag14
ag15
ag16
ag17
ag18
ag19
ag20
ag21
ag22
ag23
ag24
ag25
ag26
ag27
ag28
ag29
ag30
ag31
ag32
ag33
ag34
ag35
ag36
ag37
ag38
ag39
ag40
ag41
ag42
ag43
ag44
ag45
ag46
ag47
ag48
ag49
ag50
ag52
ag53
ag54
ag55
asa(dp261
g2
(lp262
F0.75
asg4
(lp263
g52
asg7
(lp264
F0.7083333333333333
asg9
(lp265
g6
ag11
ag12
ag13
ag14
ag15
ag16
ag17
ag18
ag19
ag20
ag21
ag22
ag23
ag24
ag25
ag26
ag27
ag28
ag29
ag30
ag31
ag32
ag33
ag34
ag35
ag36
ag37
ag38
ag39
ag40
ag41
ag42
ag43
ag44
ag45
ag46
ag47
ag48
ag49
ag50
ag51
ag53
ag54
ag55
asa(dp266
g2
(lp267
F0.86
asg4
(lp268
g53
asg7
(lp269
F0.88
asg9
(lp270
g6
ag11
ag12
ag13
ag14
ag15
ag16
ag17
ag18
ag19
ag20
ag21
ag22
ag23
ag24
ag25
ag26
ag27
ag28
ag29
ag30
ag31
ag32
ag33
ag34
ag35
ag36
ag37
ag38
ag39
ag40
ag41
ag42
ag43
ag44
ag45
ag46
ag47
ag48
ag49
ag50
ag51
ag52
ag54
ag55
asa(dp271
g2
(lp272
F0.7391304347826086
asg4
(lp273
g54
asg7
(lp274
F0.6521739130434783
asg9
(lp275
g6
ag11
ag12
ag13
ag14
ag15
ag16
ag17
ag18
ag19
ag20
ag21
ag22
ag23
ag24
ag25
ag26
ag27
ag28
ag29
ag30
ag31
ag32
ag33
ag34
ag35
ag36
ag37
ag38
ag39
ag40
ag41
ag42
ag43
ag44
ag45
ag46
ag47
ag48
ag49
ag50
ag51
ag52
ag53
ag55
asa(dp276
g2
(lp277
F0.7272727272727273
asg4
(lp278
g55
asg7
(lp279
F0.8181818181818181
asg9
(lp280
g6
ag11
ag12
ag13
ag14
ag15
ag16
ag17
ag18
ag19
ag20
ag21
ag22
ag23
ag24
ag25
ag26
ag27
ag28
ag29
ag30
ag31
ag32
ag33
ag34
ag35
ag36
ag37
ag38
ag39
ag40
ag41
ag42
ag43
ag44
ag45
ag46
ag47
ag48
ag49
ag50
ag51
ag52
ag53
ag54
asa.