(lp0
(dp1
S'binary'
p2
(lp3
sS'test_data'
p4
(lp5
S'/Users/laura/Repositories/HandwritingRecognition/data/labels/KNMP-VIII_F_69______2C2O_0002.words'
p6
asS'validation'
p7
(lp8
sS'train_data'
p9
(lp10
S'/Users/laura/Repositories/HandwritingRecognition/data/labels/KNMP-VIII_F_69______2C2O_0004.words'
p11
aS'/Users/laura/Repositories/HandwritingRecognition/data/labels/KNMP-VIII_F_69______2C2O_0006.words'
p12
aS'/Users/laura/Repositories/HandwritingRecognition/data/labels/KNMP-VIII_F_69______2C2O_0008.words'
p13
aS'/Users/laura/Repositories/HandwritingRecognition/data/labels/KNMP-VIII_F_69______2C2O_0010.words'
p14
aS'/Users/laura/Repositories/HandwritingRecognition/data/labels/KNMP-VIII_F_69______2C2O_0012.words'
p15
aS'/Users/laura/Repositories/HandwritingRecognition/data/labels/KNMP-VIII_F_69______2C2O_0014.words'
p16
aS'/Users/laura/Repositories/HandwritingRecognition/data/labels/KNMP-VIII_F_69______2C2O_0016.words'
p17
aS'/Users/laura/Repositories/HandwritingRecognition/data/labels/KNMP-VIII_F_69______2C2O_0018.words'
p18
aS'/Users/laura/Repositories/HandwritingRecognition/data/labels/KNMP-VIII_F_69______2C2O_0020.words'
p19
aS'/Users/laura/Repositories/HandwritingRecognition/data/labels/KNMP-VIII_F_69______2C2O_0022.words'
p20
aS'/Users/laura/Repositories/HandwritingRecognition/data/labels/KNMP-VIII_F_69______2C2O_0024.words'
p21
aS'/Users/laura/Repositories/HandwritingRecognition/data/labels/KNMP-VIII_F_69______2C2O_0026.words'
p22
aS'/Users/laura/Repositories/HandwritingRecognition/data/labels/KNMP-VIII_F_69______2C2O_0028.words'
p23
aS'/Users/laura/Repositories/HandwritingRecognition/data/labels/KNMP-VIII_F_69______2C2O_0030.words'
p24
aS'/Users/laura/Repositories/HandwritingRecognition/data/labels/KNMP-VIII_F_69______2C2O_0032.words'
p25
aS'/Users/laura/Repositories/HandwritingRecognition/data/labels/KNMP-VIII_F_69______2C2O_0034.words'
p26
aS'/Users/laura/Repositories/HandwritingRecognition/data/labels/KNMP-VIII_F_69______2C2O_0036.words'
p27
aS'/Users/laura/Repositories/HandwritingRecognition/data/labels/KNMP-VIII_F_69______2C2O_0038.words'
p28
aS'/Users/laura/Repositories/HandwritingRecognition/data/labels/KNMP-VIII_F_69______2C2O_0040.words'
p29
aS'/Users/laura/Repositories/HandwritingRecognition/data/labels/KNMP-VIII_F_69______2C2O_0042.words'
p30
aS'/Users/laura/Repositories/HandwritingRecognition/data/labels/KNMP-VIII_F_69______2C2O_0044.words'
p31
aS'/Users/laura/Repositories/HandwritingRecognition/data/labels/KNMP-VIII_F_69______2C2O_0046.words'
p32
aS'/Users/laura/Repositories/HandwritingRecognition/data/labels/KNMP-VIII_F_69______2C2O_0048.words'
p33
aS'/Users/laura/Repositories/HandwritingRecognition/data/labels/KNMP-VIII_F_69______2C2O_0050.words'
p34
aS'/Users/laura/Repositories/HandwritingRecognition/data/labels/KNMP-VIII_F_69______2C2O_0052.words'
p35
aS'/Users/laura/Repositories/HandwritingRecognition/data/labels/KNMP-VIII_F_69______2C2O_0054.words'
p36
aS'/Users/laura/Repositories/HandwritingRecognition/data/labels/KNMP-VIII_F_69______2C2O_0056.words'
p37
aS'/Users/laura/Repositories/HandwritingRecognition/data/labels/KNMP-VIII_F_69______2C2O_0058.words'
p38
aS'/Users/laura/Repositories/HandwritingRecognition/data/labels/KNMP-VIII_F_69______2C2O_0060.words'
p39
aS'/Users/laura/Repositories/HandwritingRecognition/data/labels/KNMP-VIII_F_69______2C2O_0062.words'
p40
aS'/Users/laura/Repositories/HandwritingRecognition/data/labels/KNMP-VIII_F_69______2C2O_0064.words'
p41
aS'/Users/laura/Repositories/HandwritingRecognition/data/labels/KNMP-VIII_F_69______2C2O_0066.words'
p42
aS'/Users/laura/Repositories/HandwritingRecognition/data/labels/KNMP-VIII_F_69______2C2O_0068.words'
p43
aS'/Users/laura/Repositories/HandwritingRecognition/data/labels/KNMP-VIII_F_69______2C2O_0070.words'
p44
aS'/Users/laura/Repositories/HandwritingRecognition/data/labels/KNMP-VIII_F_69______2C2O_0072.words'
p45
aS'/Users/laura/Repositories/HandwritingRecognition/data/labels/KNMP-VIII_F_69______2C2O_0074.words'
p46
aS'/Users/laura/Repositories/HandwritingRecognition/data/labels/KNMP-VIII_F_69______2C2O_0076.words'
p47
aS'/Users/laura/Repositories/HandwritingRecognition/data/labels/KNMP-VIII_F_69______2C2O_0078.words'
p48
aS'/Users/laura/Repositories/HandwritingRecognition/data/labels/KNMP-VIII_F_69______2C2O_0080.words'
p49
aS'/Users/laura/Repositories/HandwritingRecognition/data/labels/KNMP-VIII_F_69______2C2O_0082.words'
p50
aS'/Users/laura/Repositories/HandwritingRecognition/data/labels/KNMP-VIII_F_69______2C2O_0084.words'
p51
aS'/Users/laura/Repositories/HandwritingRecognition/data/labels/KNMP-VIII_F_69______2C2O_0086.words'
p52
aS'/Users/laura/Repositories/HandwritingRecognition/data/labels/KNMP-VIII_F_69______2C2O_0088.words'
p53
aS'/Users/laura/Repositories/HandwritingRecognition/data/labels/KNMP-VIII_F_69______2C2O_0090.words'
p54
aS'/Users/laura/Repositories/HandwritingRecognition/data/labels/KNMP-VIII_F_69______2C2O_0092.words'
p55
aS'/Users/laura/Repositories/HandwritingRecognition/data/labels/KNMP-VIII_F_69______2C2O_0094.words'
p56
aS'/Users/laura/Repositories/HandwritingRecognition/data/labels/KNMP-VIII_F_69______2C2O_0096.words'
p57
aS'/Users/laura/Repositories/HandwritingRecognition/data/labels/KNMP-VIII_F_69______2C2O_0098.words'
p58
aS'/Users/laura/Repositories/HandwritingRecognition/data/labels/KNMP-VIII_F_69______2C2O_0100.words'
p59
aS'/Users/laura/Repositories/HandwritingRecognition/data/labels/KNMP-VIII_F_69______2C2O_0102.words'
p60
aS'/Users/laura/Repositories/HandwritingRecognition/data/labels/KNMP-VIII_F_69______2C2O_0104.words'
p61
aS'/Users/laura/Repositories/HandwritingRecognition/data/labels/KNMP-VIII_F_69______2C2O_0106.words'
p62
aS'/Users/laura/Repositories/HandwritingRecognition/data/labels/KNMP-VIII_F_69______2C2O_0108.words'
p63
aS'/Users/laura/Repositories/HandwritingRecognition/data/labels/KNMP-VIII_F_69______2C2O_0110.words'
p64
aS'/Users/laura/Repositories/HandwritingRecognition/data/labels/KNMP-VIII_F_69______2C2O_0112.words'
p65
aS'/Users/laura/Repositories/HandwritingRecognition/data/labels/KNMP-VIII_F_69______2C2O_0114.words'
p66
aS'/Users/laura/Repositories/HandwritingRecognition/data/labels/KNMP-VIII_F_69______2C2O_0116.words'
p67
aS'/Users/laura/Repositories/HandwritingRecognition/data/labels/KNMP-VIII_F_69______2C2O_0118.words'
p68
aS'/Users/laura/Repositories/HandwritingRecognition/data/labels/KNMP-VIII_F_69______2C2O_0120.words'
p69
aS'/Users/laura/Repositories/HandwritingRecognition/data/labels/KNMP-VIII_F_69______2C2O_0122.words'
p70
aS'/Users/laura/Repositories/HandwritingRecognition/data/labels/KNMP-VIII_F_69______2C2O_0124.words'
p71
aS'/Users/laura/Repositories/HandwritingRecognition/data/labels/KNMP-VIII_F_69______2C2O_0126.words'
p72
aS'/Users/laura/Repositories/HandwritingRecognition/data/labels/KNMP-VIII_F_69______2C2O_0128.words'
p73
aS'/Users/laura/Repositories/HandwritingRecognition/data/labels/KNMP-VIII_F_69______2C2O_0130.words'
p74
aS'/Users/laura/Repositories/HandwritingRecognition/data/labels/KNMP-VIII_F_69______2C2O_0132.words'
p75
aS'/Users/laura/Repositories/HandwritingRecognition/data/labels/KNMP-VIII_F_69______2C2O_0134.words'
p76
aS'/Users/laura/Repositories/HandwritingRecognition/data/labels/KNMP-VIII_F_69______2C2O_0136.words'
p77
aS'/Users/laura/Repositories/HandwritingRecognition/data/labels/KNMP-VIII_F_69______2C2O_0138.words'
p78
aS'/Users/laura/Repositories/HandwritingRecognition/data/labels/KNMP-VIII_F_69______2C2O_0140.words'
p79
aS'/Users/laura/Repositories/HandwritingRecognition/data/labels/KNMP-VIII_F_69______2C2O_0142.words'
p80
aS'/Users/laura/Repositories/HandwritingRecognition/data/labels/KNMP-VIII_F_69______2C2O_0144.words'
p81
aS'/Users/laura/Repositories/HandwritingRecognition/data/labels/KNMP-VIII_F_69______2C2O_0146.words'
p82
asa(dp83
g2
(lp84
F0.9176470588235294
asg4
(lp85
g11
asg7
(lp86
F0.9411764705882353
asg9
(lp87
g6
ag12
ag13
ag14
ag15
ag16
ag17
ag18
ag19
ag20
ag21
ag22
ag23
ag24
ag25
ag26
ag27
ag28
ag29
ag30
ag31
ag32
ag33
ag34
ag35
ag36
ag37
ag38
ag39
ag40
ag41
ag42
ag43
ag44
ag45
ag46
ag47
ag48
ag49
ag50
ag51
ag52
ag53
ag54
ag55
ag56
ag57
ag58
ag59
ag60
ag61
ag62
ag63
ag64
ag65
ag66
ag67
ag68
ag69
ag70
ag71
ag72
ag73
ag74
ag75
ag76
ag77
ag78
ag79
ag80
ag81
ag82
asa(dp88
g2
(lp89
F0.8461538461538461
asg4
(lp90
g12
asg7
(lp91
F0.8461538461538461
asg9
(lp92
g6
ag11
ag13
ag14
ag15
ag16
ag17
ag18
ag19
ag20
ag21
ag22
ag23
ag24
ag25
ag26
ag27
ag28
ag29
ag30
ag31
ag32
ag33
ag34
ag35
ag36
ag37
ag38
ag39
ag40
ag41
ag42
ag43
ag44
ag45
ag46
ag47
ag48
ag49
ag50
ag51
ag52
ag53
ag54
ag55
ag56
ag57
ag58
ag59
ag60
ag61
ag62
ag63
ag64
ag65
ag66
ag67
ag68
ag69
ag70
ag71
ag72
ag73
ag74
ag75
ag76
ag77
ag78
ag79
ag80
ag81
ag82
asa(dp93
g2
(lp94
F0.8936170212765957
asg4
(lp95
g13
asg7
(lp96
F0.851063829787234
asg9
(lp97
g6
ag11
ag12
ag14
ag15
ag16
ag17
ag18
ag19
ag20
ag21
ag22
ag23
ag24
ag25
ag26
ag27
ag28
ag29
ag30
ag31
ag32
ag33
ag34
ag35
ag36
ag37
ag38
ag39
ag40
ag41
ag42
ag43
ag44
ag45
ag46
ag47
ag48
ag49
ag50
ag51
ag52
ag53
ag54
ag55
ag56
ag57
ag58
ag59
ag60
ag61
ag62
ag63
ag64
ag65
ag66
ag67
ag68
ag69
ag70
ag71
ag72
ag73
ag74
ag75
ag76
ag77
ag78
ag79
ag80
ag81
ag82
asa(dp98
g2
(lp99
F0.7941176470588236
asg4
(lp100
g14
asg7
(lp101
F0.8529411764705882
asg9
(lp102
g6
ag11
ag12
ag13
ag15
ag16
ag17
ag18
ag19
ag20
ag21
ag22
ag23
ag24
ag25
ag26
ag27
ag28
ag29
ag30
ag31
ag32
ag33
ag34
ag35
ag36
ag37
ag38
ag39
ag40
ag41
ag42
ag43
ag44
ag45
ag46
ag47
ag48
ag49
ag50
ag51
ag52
ag53
ag54
ag55
ag56
ag57
ag58
ag59
ag60
ag61
ag62
ag63
ag64
ag65
ag66
ag67
ag68
ag69
ag70
ag71
ag72
ag73
ag74
ag75
ag76
ag77
ag78
ag79
ag80
ag81
ag82
asa(dp103
g2
(lp104
F0.7804878048780488
asg4
(lp105
g15
asg7
(lp106
F0.8048780487804879
asg9
(lp107
g6
ag11
ag12
ag13
ag14
ag16
ag17
ag18
ag19
ag20
ag21
ag22
ag23
ag24
ag25
ag26
ag27
ag28
ag29
ag30
ag31
ag32
ag33
ag34
ag35
ag36
ag37
ag38
ag39
ag40
ag41
ag42
ag43
ag44
ag45
ag46
ag47
ag48
ag49
ag50
ag51
ag52
ag53
ag54
ag55
ag56
ag57
ag58
ag59
ag60
ag61
ag62
ag63
ag64
ag65
ag66
ag67
ag68
ag69
ag70
ag71
ag72
ag73
ag74
ag75
ag76
ag77
ag78
ag79
ag80
ag81
ag82
asa(dp108
g2
(lp109
F0.9166666666666666
asg4
(lp110
g16
asg7
(lp111
F0.8611111111111112
asg9
(lp112
g6
ag11
ag12
ag13
ag14
ag15
ag17
ag18
ag19
ag20
ag21
ag22
ag23
ag24
ag25
ag26
ag27
ag28
ag29
ag30
ag31
ag32
ag33
ag34
ag35
ag36
ag37
ag38
ag39
ag40
ag41
ag42
ag43
ag44
ag45
ag46
ag47
ag48
ag49
ag50
ag51
ag52
ag53
ag54
ag55
ag56
ag57
ag58
ag59
ag60
ag61
ag62
ag63
ag64
ag65
ag66
ag67
ag68
ag69
ag70
ag71
ag72
ag73
ag74
ag75
ag76
ag77
ag78
ag79
ag80
ag81
ag82
asa(dp113
g2
(lp114
F0.5
asg4
(lp115
g17
asg7
(lp116
F0.43999999999999995
asg9
(lp117
g6
ag11
ag12
ag13
ag14
ag15
ag16
ag18
ag19
ag20
ag21
ag22
ag23
ag24
ag25
ag26
ag27
ag28
ag29
ag30
ag31
ag32
ag33
ag34
ag35
ag36
ag37
ag38
ag39
ag40
ag41
ag42
ag43
ag44
ag45
ag46
ag47
ag48
ag49
ag50
ag51
ag52
ag53
ag54
ag55
ag56
ag57
ag58
ag59
ag60
ag61
ag62
ag63
ag64
ag65
ag66
ag67
ag68
ag69
ag70
ag71
ag72
ag73
ag74
ag75
ag76
ag77
ag78
ag79
ag80
ag81
ag82
asa(dp118
g2
(lp119
F0.6818181818181819
asg4
(lp120
g18
asg7
(lp121
F0.6666666666666667
asg9
(lp122
g6
ag11
ag12
ag13
ag14
ag15
ag16
ag17
ag19
ag20
ag21
ag22
ag23
ag24
ag25
ag26
ag27
ag28
ag29
ag30
ag31
ag32
ag33
ag34
ag35
ag36
ag37
ag38
ag39
ag40
ag41
ag42
ag43
ag44
ag45
ag46
ag47
ag48
ag49
ag50
ag51
ag52
ag53
ag54
ag55
ag56
ag57
ag58
ag59
ag60
ag61
ag62
ag63
ag64
ag65
ag66
ag67
ag68
ag69
ag70
ag71
ag72
ag73
ag74
ag75
ag76
ag77
ag78
ag79
ag80
ag81
ag82
asa(dp123
g2
(lp124
F0.7931034482758621
asg4
(lp125
g19
asg7
(lp126
F0.6551724137931034
asg9
(lp127
g6
ag11
ag12
ag13
ag14
ag15
ag16
ag17
ag18
ag20
ag21
ag22
ag23
ag24
ag25
ag26
ag27
ag28
ag29
ag30
ag31
ag32
ag33
ag34
ag35
ag36
ag37
ag38
ag39
ag40
ag41
ag42
ag43
ag44
ag45
ag46
ag47
ag48
ag49
ag50
ag51
ag52
ag53
ag54
ag55
ag56
ag57
ag58
ag59
ag60
ag61
ag62
ag63
ag64
ag65
ag66
ag67
ag68
ag69
ag70
ag71
ag72
ag73
ag74
ag75
ag76
ag77
ag78
ag79
ag80
ag81
ag82
asa(dp128
g2
(lp129
F0.7959183673469388
asg4
(lp130
g20
asg7
(lp131
F0.7551020408163265
asg9
(lp132
g6
ag11
ag12
ag13
ag14
ag15
ag16
ag17
ag18
ag19
ag21
ag22
ag23
ag24
ag25
ag26
ag27
ag28
ag29
ag30
ag31
ag32
ag33
ag34
ag35
ag36
ag37
ag38
ag39
ag40
ag41
ag42
ag43
ag44
ag45
ag46
ag47
ag48
ag49
ag50
ag51
ag52
ag53
ag54
ag55
ag56
ag57
ag58
ag59
ag60
ag61
ag62
ag63
ag64
ag65
ag66
ag67
ag68
ag69
ag70
ag71
ag72
ag73
ag74
ag75
ag76
ag77
ag78
ag79
ag80
ag81
ag82
asa(dp133
g2
(lp134
F0.8225806451612903
asg4
(lp135
g21
asg7
(lp136
F0.6935483870967742
asg9
(lp137
g6
ag11
ag12
ag13
ag14
ag15
ag16
ag17
ag18
ag19
ag20
ag22
ag23
ag24
ag25
ag26
ag27
ag28
ag29
ag30
ag31
ag32
ag33
ag34
ag35
ag36
ag37
ag38
ag39
ag40
ag41
ag42
ag43
ag44
ag45
ag46
ag47
ag48
ag49
ag50
ag51
ag52
ag53
ag54
ag55
ag56
ag57
ag58
ag59
ag60
ag61
ag62
ag63
ag64
ag65
ag66
ag67
ag68
ag69
ag70
ag71
ag72
ag73
ag74
ag75
ag76
ag77
ag78
ag79
ag80
ag81
ag82
asa(dp138
g2
(lp139
F0.696969696969697
asg4
(lp140
g22
asg7
(lp141
F0.696969696969697
asg9
(lp142
g6
ag11
ag12
ag13
ag14
ag15
ag16
ag17
ag18
ag19
ag20
ag21
ag23
ag24
ag25
ag26
ag27
ag28
ag29
ag30
ag31
ag32
ag33
ag34
ag35
ag36
ag37
ag38
ag39
ag40
ag41
ag42
ag43
ag44
ag45
ag46
ag47
ag48
ag49
ag50
ag51
ag52
ag53
ag54
ag55
ag56
ag57
ag58
ag59
ag60
ag61
ag62
ag63
ag64
ag65
ag66
ag67
ag68
ag69
ag70
ag71
ag72
ag73
ag74
ag75
ag76
ag77
ag78
ag79
ag80
ag81
ag82
asa(dp143
g2
(lp144
F0.7931034482758621
asg4
(lp145
g23
asg7
(lp146
F0.7241379310344828
asg9
(lp147
g6
ag11
ag12
ag13
ag14
ag15
ag16
ag17
ag18
ag19
ag20
ag21
ag22
ag24
ag25
ag26
ag27
ag28
ag29
ag30
ag31
ag32
ag33
ag34
ag35
ag36
ag37
ag38
ag39
ag40
ag41
ag42
ag43
ag44
ag45
ag46
ag47
ag48
ag49
ag50
ag51
ag52
ag53
ag54
ag55
ag56
ag57
ag58
ag59
ag60
ag61
ag62
ag63
ag64
ag65
ag66
ag67
ag68
ag69
ag70
ag71
ag72
ag73
ag74
ag75
ag76
ag77
ag78
ag79
ag80
ag81
ag82
asa(dp148
g2
(lp149
F0.7605633802816901
asg4
(lp150
g24
asg7
(lp151
F0.6338028169014085
asg9
(lp152
g6
ag11
ag12
ag13
ag14
ag15
ag16
ag17
ag18
ag19
ag20
ag21
ag22
ag23
ag25
ag26
ag27
ag28
ag29
ag30
ag31
ag32
ag33
ag34
ag35
ag36
ag37
ag38
ag39
ag40
ag41
ag42
ag43
ag44
ag45
ag46
ag47
ag48
ag49
ag50
ag51
ag52
ag53
ag54
ag55
ag56
ag57
ag58
ag59
ag60
ag61
ag62
ag63
ag64
ag65
ag66
ag67
ag68
ag69
ag70
ag71
ag72
ag73
ag74
ag75
ag76
ag77
ag78
ag79
ag80
ag81
ag82
asa(dp153
g2
(lp154
F0.6
asg4
(lp155
g25
asg7
(lp156
F0.55
asg9
(lp157
g6
ag11
ag12
ag13
ag14
ag15
ag16
ag17
ag18
ag19
ag20
ag21
ag22
ag23
ag24
ag26
ag27
ag28
ag29
ag30
ag31
ag32
ag33
ag34
ag35
ag36
ag37
ag38
ag39
ag40
ag41
ag42
ag43
ag44
ag45
ag46
ag47
ag48
ag49
ag50
ag51
ag52
ag53
ag54
ag55
ag56
ag57
ag58
ag59
ag60
ag61
ag62
ag63
ag64
ag65
ag66
ag67
ag68
ag69
ag70
ag71
ag72
ag73
ag74
ag75
ag76
ag77
ag78
ag79
ag80
ag81
ag82
asa(dp158
g2
(lp159
F0.6849315068493151
asg4
(lp160
g26
asg7
(lp161
F0.6986301369863014
asg9
(lp162
g6
ag11
ag12
ag13
ag14
ag15
ag16
ag17
ag18
ag19
ag20
ag21
ag22
ag23
ag24
ag25
ag27
ag28
ag29
ag30
ag31
ag32
ag33
ag34
ag35
ag36
ag37
ag38
ag39
ag40
ag41
ag42
ag43
ag44
ag45
ag46
ag47
ag48
ag49
ag50
ag51
ag52
ag53
ag54
ag55
ag56
ag57
ag58
ag59
ag60
ag61
ag62
ag63
ag64
ag65
ag66
ag67
ag68
ag69
ag70
ag71
ag72
ag73
ag74
ag75
ag76
ag77
ag78
ag79
ag80
ag81
ag82
asa(dp163
g2
(lp164
F0.7215189873417722
asg4
(lp165
g27
asg7
(lp166
F0.6708860759493671
asg9
(lp167
g6
ag11
ag12
ag13
ag14
ag15
ag16
ag17
ag18
ag19
ag20
ag21
ag22
ag23
ag24
ag25
ag26
ag28
ag29
ag30
ag31
ag32
ag33
ag34
ag35
ag36
ag37
ag38
ag39
ag40
ag41
ag42
ag43
ag44
ag45
ag46
ag47
ag48
ag49
ag50
ag51
ag52
ag53
ag54
ag55
ag56
ag57
ag58
ag59
ag60
ag61
ag62
ag63
ag64
ag65
ag66
ag67
ag68
ag69
ag70
ag71
ag72
ag73
ag74
ag75
ag76
ag77
ag78
ag79
ag80
ag81
ag82
asa(dp168
g2
(lp169
F0.7480916030534351
asg4
(lp170
g28
asg7
(lp171
F0.7480916030534351
asg9
(lp172
g6
ag11
ag12
ag13
ag14
ag15
ag16
ag17
ag18
ag19
ag20
ag21
ag22
ag23
ag24
ag25
ag26
ag27
ag29
ag30
ag31
ag32
ag33
ag34
ag35
ag36
ag37
ag38
ag39
ag40
ag41
ag42
ag43
ag44
ag45
ag46
ag47
ag48
ag49
ag50
ag51
ag52
ag53
ag54
ag55
ag56
ag57
ag58
ag59
ag60
ag61
ag62
ag63
ag64
ag65
ag66
ag67
ag68
ag69
ag70
ag71
ag72
ag73
ag74
ag75
ag76
ag77
ag78
ag79
ag80
ag81
ag82
asa(dp173
g2
(lp174
F0.6551724137931034
asg4
(lp175
g29
asg7
(lp176
F0.632183908045977
asg9
(lp177
g6
ag11
ag12
ag13
ag14
ag15
ag16
ag17
ag18
ag19
ag20
ag21
ag22
ag23
ag24
ag25
ag26
ag27
ag28
ag30
ag31
ag32
ag33
ag34
ag35
ag36
ag37
ag38
ag39
ag40
ag41
ag42
ag43
ag44
ag45
ag46
ag47
ag48
ag49
ag50
ag51
ag52
ag53
ag54
ag55
ag56
ag57
ag58
ag59
ag60
ag61
ag62
ag63
ag64
ag65
ag66
ag67
ag68
ag69
ag70
ag71
ag72
ag73
ag74
ag75
ag76
ag77
ag78
ag79
ag80
ag81
ag82
asa(dp178
g2
(lp179
F0.8200000000000001
asg4
(lp180
g30
asg7
(lp181
F0.72
asg9
(lp182
g6
ag11
ag12
ag13
ag14
ag15
ag16
ag17
ag18
ag19
ag20
ag21
ag22
ag23
ag24
ag25
ag26
ag27
ag28
ag29
ag31
ag32
ag33
ag34
ag35
ag36
ag37
ag38
ag39
ag40
ag41
ag42
ag43
ag44
ag45
ag46
ag47
ag48
ag49
ag50
ag51
ag52
ag53
ag54
ag55
ag56
ag57
ag58
ag59
ag60
ag61
ag62
ag63
ag64
ag65
ag66
ag67
ag68
ag69
ag70
ag71
ag72
ag73
ag74
ag75
ag76
ag77
ag78
ag79
ag80
ag81
ag82
asa(dp183
g2
(lp184
F0.6734693877551021
asg4
(lp185
g31
asg7
(lp186
F0.6122448979591837
asg9
(lp187
g6
ag11
ag12
ag13
ag14
ag15
ag16
ag17
ag18
ag19
ag20
ag21
ag22
ag23
ag24
ag25
ag26
ag27
ag28
ag29
ag30
ag32
ag33
ag34
ag35
ag36
ag37
ag38
ag39
ag40
ag41
ag42
ag43
ag44
ag45
ag46
ag47
ag48
ag49
ag50
ag51
ag52
ag53
ag54
ag55
ag56
ag57
ag58
ag59
ag60
ag61
ag62
ag63
ag64
ag65
ag66
ag67
ag68
ag69
ag70
ag71
ag72
ag73
ag74
ag75
ag76
ag77
ag78
ag79
ag80
ag81
ag82
asa(dp188
g2
(lp189
F0.7647058823529411
asg4
(lp190
g32
asg7
(lp191
F0.7254901960784313
asg9
(lp192
g6
ag11
ag12
ag13
ag14
ag15
ag16
ag17
ag18
ag19
ag20
ag21
ag22
ag23
ag24
ag25
ag26
ag27
ag28
ag29
ag30
ag31
ag33
ag34
ag35
ag36
ag37
ag38
ag39
ag40
ag41
ag42
ag43
ag44
ag45
ag46
ag47
ag48
ag49
ag50
ag51
ag52
ag53
ag54
ag55
ag56
ag57
ag58
ag59
ag60
ag61
ag62
ag63
ag64
ag65
ag66
ag67
ag68
ag69
ag70
ag71
ag72
ag73
ag74
ag75
ag76
ag77
ag78
ag79
ag80
ag81
ag82
asa(dp193
g2
(lp194
F0.9166666666666666
asg4
(lp195
g33
asg7
(lp196
F0.8611111111111112
asg9
(lp197
g6
ag11
ag12
ag13
ag14
ag15
ag16
ag17
ag18
ag19
ag20
ag21
ag22
ag23
ag24
ag25
ag26
ag27
ag28
ag29
ag30
ag31
ag32
ag34
ag35
ag36
ag37
ag38
ag39
ag40
ag41
ag42
ag43
ag44
ag45
ag46
ag47
ag48
ag49
ag50
ag51
ag52
ag53
ag54
ag55
ag56
ag57
ag58
ag59
ag60
ag61
ag62
ag63
ag64
ag65
ag66
ag67
ag68
ag69
ag70
ag71
ag72
ag73
ag74
ag75
ag76
ag77
ag78
ag79
ag80
ag81
ag82
asa(dp198
g2
(lp199
F0.8947368421052632
asg4
(lp200
g34
asg7
(lp201
F0.8947368421052632
asg9
(lp202
g6
ag11
ag12
ag13
ag14
ag15
ag16
ag17
ag18
ag19
ag20
ag21
ag22
ag23
ag24
ag25
ag26
ag27
ag28
ag29
ag30
ag31
ag32
ag33
ag35
ag36
ag37
ag38
ag39
ag40
ag41
ag42
ag43
ag44
ag45
ag46
ag47
ag48
ag49
ag50
ag51
ag52
ag53
ag54
ag55
ag56
ag57
ag58
ag59
ag60
ag61
ag62
ag63
ag64
ag65
ag66
ag67
ag68
ag69
ag70
ag71
ag72
ag73
ag74
ag75
ag76
ag77
ag78
ag79
ag80
ag81
ag82
asa(dp203
g2
(lp204
F0.7346938775510203
asg4
(lp205
g35
asg7
(lp206
F0.5918367346938775
asg9
(lp207
g6
ag11
ag12
ag13
ag14
ag15
ag16
ag17
ag18
ag19
ag20
ag21
ag22
ag23
ag24
ag25
ag26
ag27
ag28
ag29
ag30
ag31
ag32
ag33
ag34
ag36
ag37
ag38
ag39
ag40
ag41
ag42
ag43
ag44
ag45
ag46
ag47
ag48
ag49
ag50
ag51
ag52
ag53
ag54
ag55
ag56
ag57
ag58
ag59
ag60
ag61
ag62
ag63
ag64
ag65
ag66
ag67
ag68
ag69
ag70
ag71
ag72
ag73
ag74
ag75
ag76
ag77
ag78
ag79
ag80
ag81
ag82
asa(dp208
g2
(lp209
F0.9365079365079365
asg4
(lp210
g36
asg7
(lp211
F0.8888888888888888
asg9
(lp212
g6
ag11
ag12
ag13
ag14
ag15
ag16
ag17
ag18
ag19
ag20
ag21
ag22
ag23
ag24
ag25
ag26
ag27
ag28
ag29
ag30
ag31
ag32
ag33
ag34
ag35
ag37
ag38
ag39
ag40
ag41
ag42
ag43
ag44
ag45
ag46
ag47
ag48
ag49
ag50
ag51
ag52
ag53
ag54
ag55
ag56
ag57
ag58
ag59
ag60
ag61
ag62
ag63
ag64
ag65
ag66
ag67
ag68
ag69
ag70
ag71
ag72
ag73
ag74
ag75
ag76
ag77
ag78
ag79
ag80
ag81
ag82
asa(dp213
g2
(lp214
F0.6086956521739131
asg4
(lp215
g37
asg7
(lp216
F0.6086956521739131
asg9
(lp217
g6
ag11
ag12
ag13
ag14
ag15
ag16
ag17
ag18
ag19
ag20
ag21
ag22
ag23
ag24
ag25
ag26
ag27
ag28
ag29
ag30
ag31
ag32
ag33
ag34
ag35
ag36
ag38
ag39
ag40
ag41
ag42
ag43
ag44
ag45
ag46
ag47
ag48
ag49
ag50
ag51
ag52
ag53
ag54
ag55
ag56
ag57
ag58
ag59
ag60
ag61
ag62
ag63
ag64
ag65
ag66
ag67
ag68
ag69
ag70
ag71
ag72
ag73
ag74
ag75
ag76
ag77
ag78
ag79
ag80
ag81
ag82
asa(dp218
g2
(lp219
F0.775
asg4
(lp220
g38
asg7
(lp221
F0.675
asg9
(lp222
g6
ag11
ag12
ag13
ag14
ag15
ag16
ag17
ag18
ag19
ag20
ag21
ag22
ag23
ag24
ag25
ag26
ag27
ag28
ag29
ag30
ag31
ag32
ag33
ag34
ag35
ag36
ag37
ag39
ag40
ag41
ag42
ag43
ag44
ag45
ag46
ag47
ag48
ag49
ag50
ag51
ag52
ag53
ag54
ag55
ag56
ag57
ag58
ag59
ag60
ag61
ag62
ag63
ag64
ag65
ag66
ag67
ag68
ag69
ag70
ag71
ag72
ag73
ag74
ag75
ag76
ag77
ag78
ag79
ag80
ag81
ag82
asa(dp223
g2
(lp224
F0.6875
asg4
(lp225
g39
asg7
(lp226
F0.6875
asg9
(lp227
g6
ag11
ag12
ag13
ag14
ag15
ag16
ag17
ag18
ag19
ag20
ag21
ag22
ag23
ag24
ag25
ag26
ag27
ag28
ag29
ag30
ag31
ag32
ag33
ag34
ag35
ag36
ag37
ag38
ag40
ag41
ag42
ag43
ag44
ag45
ag46
ag47
ag48
ag49
ag50
ag51
ag52
ag53
ag54
ag55
ag56
ag57
ag58
ag59
ag60
ag61
ag62
ag63
ag64
ag65
ag66
ag67
ag68
ag69
ag70
ag71
ag72
ag73
ag74
ag75
ag76
ag77
ag78
ag79
ag80
ag81
ag82
asa(dp228
g2
(lp229
F0.582089552238806
asg4
(lp230
g40
asg7
(lp231
F0.5522388059701493
asg9
(lp232
g6
ag11
ag12
ag13
ag14
ag15
ag16
ag17
ag18
ag19
ag20
ag21
ag22
ag23
ag24
ag25
ag26
ag27
ag28
ag29
ag30
ag31
ag32
ag33
ag34
ag35
ag36
ag37
ag38
ag39
ag41
ag42
ag43
ag44
ag45
ag46
ag47
ag48
ag49
ag50
ag51
ag52
ag53
ag54
ag55
ag56
ag57
ag58
ag59
ag60
ag61
ag62
ag63
ag64
ag65
ag66
ag67
ag68
ag69
ag70
ag71
ag72
ag73
ag74
ag75
ag76
ag77
ag78
ag79
ag80
ag81
ag82
asa(dp233
g2
(lp234
F0.7254901960784313
asg4
(lp235
g41
asg7
(lp236
F0.6470588235294117
asg9
(lp237
g6
ag11
ag12
ag13
ag14
ag15
ag16
ag17
ag18
ag19
ag20
ag21
ag22
ag23
ag24
ag25
ag26
ag27
ag28
ag29
ag30
ag31
ag32
ag33
ag34
ag35
ag36
ag37
ag38
ag39
ag40
ag42
ag43
ag44
ag45
ag46
ag47
ag48
ag49
ag50
ag51
ag52
ag53
ag54
ag55
ag56
ag57
ag58
ag59
ag60
ag61
ag62
ag63
ag64
ag65
ag66
ag67
ag68
ag69
ag70
ag71
ag72
ag73
ag74
ag75
ag76
ag77
ag78
ag79
ag80
ag81
ag82
asa(dp238
g2
(lp239
F0.5945945945945945
asg4
(lp240
g42
asg7
(lp241
F0.5945945945945945
asg9
(lp242
g6
ag11
ag12
ag13
ag14
ag15
ag16
ag17
ag18
ag19
ag20
ag21
ag22
ag23
ag24
ag25
ag26
ag27
ag28
ag29
ag30
ag31
ag32
ag33
ag34
ag35
ag36
ag37
ag38
ag39
ag40
ag41
ag43
ag44
ag45
ag46
ag47
ag48
ag49
ag50
ag51
ag52
ag53
ag54
ag55
ag56
ag57
ag58
ag59
ag60
ag61
ag62
ag63
ag64
ag65
ag66
ag67
ag68
ag69
ag70
ag71
ag72
ag73
ag74
ag75
ag76
ag77
ag78
ag79
ag80
ag81
ag82
asa(dp243
g2
(lp244
F0.8148148148148149
asg4
(lp245
g43
asg7
(lp246
F0.8148148148148149
asg9
(lp247
g6
ag11
ag12
ag13
ag14
ag15
ag16
ag17
ag18
ag19
ag20
ag21
ag22
ag23
ag24
ag25
ag26
ag27
ag28
ag29
ag30
ag31
ag32
ag33
ag34
ag35
ag36
ag37
ag38
ag39
ag40
ag41
ag42
ag44
ag45
ag46
ag47
ag48
ag49
ag50
ag51
ag52
ag53
ag54
ag55
ag56
ag57
ag58
ag59
ag60
ag61
ag62
ag63
ag64
ag65
ag66
ag67
ag68
ag69
ag70
ag71
ag72
ag73
ag74
ag75
ag76
ag77
ag78
ag79
ag80
ag81
ag82
asa(dp248
g2
(lp249
F0.6825396825396826
asg4
(lp250
g44
asg7
(lp251
F0.6984126984126984
asg9
(lp252
g6
ag11
ag12
ag13
ag14
ag15
ag16
ag17
ag18
ag19
ag20
ag21
ag22
ag23
ag24
ag25
ag26
ag27
ag28
ag29
ag30
ag31
ag32
ag33
ag34
ag35
ag36
ag37
ag38
ag39
ag40
ag41
ag42
ag43
ag45
ag46
ag47
ag48
ag49
ag50
ag51
ag52
ag53
ag54
ag55
ag56
ag57
ag58
ag59
ag60
ag61
ag62
ag63
ag64
ag65
ag66
ag67
ag68
ag69
ag70
ag71
ag72
ag73
ag74
ag75
ag76
ag77
ag78
ag79
ag80
ag81
ag82
asa(dp253
g2
(lp254
F0.6415094339622642
asg4
(lp255
g45
asg7
(lp256
F0.5471698113207547
asg9
(lp257
g6
ag11
ag12
ag13
ag14
ag15
ag16
ag17
ag18
ag19
ag20
ag21
ag22
ag23
ag24
ag25
ag26
ag27
ag28
ag29
ag30
ag31
ag32
ag33
ag34
ag35
ag36
ag37
ag38
ag39
ag40
ag41
ag42
ag43
ag44
ag46
ag47
ag48
ag49
ag50
ag51
ag52
ag53
ag54
ag55
ag56
ag57
ag58
ag59
ag60
ag61
ag62
ag63
ag64
ag65
ag66
ag67
ag68
ag69
ag70
ag71
ag72
ag73
ag74
ag75
ag76
ag77
ag78
ag79
ag80
ag81
ag82
asa(dp258
g2
(lp259
F0.7358490566037736
asg4
(lp260
g46
asg7
(lp261
F0.6603773584905661
asg9
(lp262
g6
ag11
ag12
ag13
ag14
ag15
ag16
ag17
ag18
ag19
ag20
ag21
ag22
ag23
ag24
ag25
ag26
ag27
ag28
ag29
ag30
ag31
ag32
ag33
ag34
ag35
ag36
ag37
ag38
ag39
ag40
ag41
ag42
ag43
ag44
ag45
ag47
ag48
ag49
ag50
ag51
ag52
ag53
ag54
ag55
ag56
ag57
ag58
ag59
ag60
ag61
ag62
ag63
ag64
ag65
ag66
ag67
ag68
ag69
ag70
ag71
ag72
ag73
ag74
ag75
ag76
ag77
ag78
ag79
ag80
ag81
ag82
asa(dp263
g2
(lp264
F0.639344262295082
asg4
(lp265
g47
asg7
(lp266
F0.5737704918032787
asg9
(lp267
g6
ag11
ag12
ag13
ag14
ag15
ag16
ag17
ag18
ag19
ag20
ag21
ag22
ag23
ag24
ag25
ag26
ag27
ag28
ag29
ag30
ag31
ag32
ag33
ag34
ag35
ag36
ag37
ag38
ag39
ag40
ag41
ag42
ag43
ag44
ag45
ag46
ag48
ag49
ag50
ag51
ag52
ag53
ag54
ag55
ag56
ag57
ag58
ag59
ag60
ag61
ag62
ag63
ag64
ag65
ag66
ag67
ag68
ag69
ag70
ag71
ag72
ag73
ag74
ag75
ag76
ag77
ag78
ag79
ag80
ag81
ag82
asa(dp268
g2
(lp269
F0.641025641025641
asg4
(lp270
g48
asg7
(lp271
F0.6282051282051282
asg9
(lp272
g6
ag11
ag12
ag13
ag14
ag15
ag16
ag17
ag18
ag19
ag20
ag21
ag22
ag23
ag24
ag25
ag26
ag27
ag28
ag29
ag30
ag31
ag32
ag33
ag34
ag35
ag36
ag37
ag38
ag39
ag40
ag41
ag42
ag43
ag44
ag45
ag46
ag47
ag49
ag50
ag51
ag52
ag53
ag54
ag55
ag56
ag57
ag58
ag59
ag60
ag61
ag62
ag63
ag64
ag65
ag66
ag67
ag68
ag69
ag70
ag71
ag72
ag73
ag74
ag75
ag76
ag77
ag78
ag79
ag80
ag81
ag82
asa(dp273
g2
(lp274
F0.6164383561643836
asg4
(lp275
g49
asg7
(lp276
F0.4931506849315068
asg9
(lp277
g6
ag11
ag12
ag13
ag14
ag15
ag16
ag17
ag18
ag19
ag20
ag21
ag22
ag23
ag24
ag25
ag26
ag27
ag28
ag29
ag30
ag31
ag32
ag33
ag34
ag35
ag36
ag37
ag38
ag39
ag40
ag41
ag42
ag43
ag44
ag45
ag46
ag47
ag48
ag50
ag51
ag52
ag53
ag54
ag55
ag56
ag57
ag58
ag59
ag60
ag61
ag62
ag63
ag64
ag65
ag66
ag67
ag68
ag69
ag70
ag71
ag72
ag73
ag74
ag75
ag76
ag77
ag78
ag79
ag80
ag81
ag82
asa(dp278
g2
(lp279
F0.6818181818181819
asg4
(lp280
g50
asg7
(lp281
F0.7121212121212122
asg9
(lp282
g6
ag11
ag12
ag13
ag14
ag15
ag16
ag17
ag18
ag19
ag20
ag21
ag22
ag23
ag24
ag25
ag26
ag27
ag28
ag29
ag30
ag31
ag32
ag33
ag34
ag35
ag36
ag37
ag38
ag39
ag40
ag41
ag42
ag43
ag44
ag45
ag46
ag47
ag48
ag49
ag51
ag52
ag53
ag54
ag55
ag56
ag57
ag58
ag59
ag60
ag61
ag62
ag63
ag64
ag65
ag66
ag67
ag68
ag69
ag70
ag71
ag72
ag73
ag74
ag75
ag76
ag77
ag78
ag79
ag80
ag81
ag82
asa(dp283
g2
(lp284
F0.9824561403508771
asg4
(lp285
g51
asg7
(lp286
F0.9824561403508771
asg9
(lp287
g6
ag11
ag12
ag13
ag14
ag15
ag16
ag17
ag18
ag19
ag20
ag21
ag22
ag23
ag24
ag25
ag26
ag27
ag28
ag29
ag30
ag31
ag32
ag33
ag34
ag35
ag36
ag37
ag38
ag39
ag40
ag41
ag42
ag43
ag44
ag45
ag46
ag47
ag48
ag49
ag50
ag52
ag53
ag54
ag55
ag56
ag57
ag58
ag59
ag60
ag61
ag62
ag63
ag64
ag65
ag66
ag67
ag68
ag69
ag70
ag71
ag72
ag73
ag74
ag75
ag76
ag77
ag78
ag79
ag80
ag81
ag82
asa(dp288
g2
(lp289
F0.631578947368421
asg4
(lp290
g52
asg7
(lp291
F0.8245614035087719
asg9
(lp292
g6
ag11
ag12
ag13
ag14
ag15
ag16
ag17
ag18
ag19
ag20
ag21
ag22
ag23
ag24
ag25
ag26
ag27
ag28
ag29
ag30
ag31
ag32
ag33
ag34
ag35
ag36
ag37
ag38
ag39
ag40
ag41
ag42
ag43
ag44
ag45
ag46
ag47
ag48
ag49
ag50
ag51
ag53
ag54
ag55
ag56
ag57
ag58
ag59
ag60
ag61
ag62
ag63
ag64
ag65
ag66
ag67
ag68
ag69
ag70
ag71
ag72
ag73
ag74
ag75
ag76
ag77
ag78
ag79
ag80
ag81
ag82
asa(dp293
g2
(lp294
F0.735632183908046
asg4
(lp295
g53
asg7
(lp296
F0.7241379310344828
asg9
(lp297
g6
ag11
ag12
ag13
ag14
ag15
ag16
ag17
ag18
ag19
ag20
ag21
ag22
ag23
ag24
ag25
ag26
ag27
ag28
ag29
ag30
ag31
ag32
ag33
ag34
ag35
ag36
ag37
ag38
ag39
ag40
ag41
ag42
ag43
ag44
ag45
ag46
ag47
ag48
ag49
ag50
ag51
ag52
ag54
ag55
ag56
ag57
ag58
ag59
ag60
ag61
ag62
ag63
ag64
ag65
ag66
ag67
ag68
ag69
ag70
ag71
ag72
ag73
ag74
ag75
ag76
ag77
ag78
ag79
ag80
ag81
ag82
asa(dp298
g2
(lp299
F0.5217391304347826
asg4
(lp300
g54
asg7
(lp301
F0.5326086956521738
asg9
(lp302
g6
ag11
ag12
ag13
ag14
ag15
ag16
ag17
ag18
ag19
ag20
ag21
ag22
ag23
ag24
ag25
ag26
ag27
ag28
ag29
ag30
ag31
ag32
ag33
ag34
ag35
ag36
ag37
ag38
ag39
ag40
ag41
ag42
ag43
ag44
ag45
ag46
ag47
ag48
ag49
ag50
ag51
ag52
ag53
ag55
ag56
ag57
ag58
ag59
ag60
ag61
ag62
ag63
ag64
ag65
ag66
ag67
ag68
ag69
ag70
ag71
ag72
ag73
ag74
ag75
ag76
ag77
ag78
ag79
ag80
ag81
ag82
asa(dp303
g2
(lp304
F0.8411214953271028
asg4
(lp305
g55
asg7
(lp306
F0.8598130841121495
asg9
(lp307
g6
ag11
ag12
ag13
ag14
ag15
ag16
ag17
ag18
ag19
ag20
ag21
ag22
ag23
ag24
ag25
ag26
ag27
ag28
ag29
ag30
ag31
ag32
ag33
ag34
ag35
ag36
ag37
ag38
ag39
ag40
ag41
ag42
ag43
ag44
ag45
ag46
ag47
ag48
ag49
ag50
ag51
ag52
ag53
ag54
ag56
ag57
ag58
ag59
ag60
ag61
ag62
ag63
ag64
ag65
ag66
ag67
ag68
ag69
ag70
ag71
ag72
ag73
ag74
ag75
ag76
ag77
ag78
ag79
ag80
ag81
ag82
asa(dp308
g2
(lp309
F0.7032967032967032
asg4
(lp310
g56
asg7
(lp311
F0.7032967032967032
asg9
(lp312
g6
ag11
ag12
ag13
ag14
ag15
ag16
ag17
ag18
ag19
ag20
ag21
ag22
ag23
ag24
ag25
ag26
ag27
ag28
ag29
ag30
ag31
ag32
ag33
ag34
ag35
ag36
ag37
ag38
ag39
ag40
ag41
ag42
ag43
ag44
ag45
ag46
ag47
ag48
ag49
ag50
ag51
ag52
ag53
ag54
ag55
ag57
ag58
ag59
ag60
ag61
ag62
ag63
ag64
ag65
ag66
ag67
ag68
ag69
ag70
ag71
ag72
ag73
ag74
ag75
ag76
ag77
ag78
ag79
ag80
ag81
ag82
asa(dp313
g2
(lp314
F0.639344262295082
asg4
(lp315
g57
asg7
(lp316
F0.639344262295082
asg9
(lp317
g6
ag11
ag12
ag13
ag14
ag15
ag16
ag17
ag18
ag19
ag20
ag21
ag22
ag23
ag24
ag25
ag26
ag27
ag28
ag29
ag30
ag31
ag32
ag33
ag34
ag35
ag36
ag37
ag38
ag39
ag40
ag41
ag42
ag43
ag44
ag45
ag46
ag47
ag48
ag49
ag50
ag51
ag52
ag53
ag54
ag55
ag56
ag58
ag59
ag60
ag61
ag62
ag63
ag64
ag65
ag66
ag67
ag68
ag69
ag70
ag71
ag72
ag73
ag74
ag75
ag76
ag77
ag78
ag79
ag80
ag81
ag82
asa(dp318
g2
(lp319
F0.6774193548387097
asg4
(lp320
g58
asg7
(lp321
F0.6935483870967742
asg9
(lp322
g6
ag11
ag12
ag13
ag14
ag15
ag16
ag17
ag18
ag19
ag20
ag21
ag22
ag23
ag24
ag25
ag26
ag27
ag28
ag29
ag30
ag31
ag32
ag33
ag34
ag35
ag36
ag37
ag38
ag39
ag40
ag41
ag42
ag43
ag44
ag45
ag46
ag47
ag48
ag49
ag50
ag51
ag52
ag53
ag54
ag55
ag56
ag57
ag59
ag60
ag61
ag62
ag63
ag64
ag65
ag66
ag67
ag68
ag69
ag70
ag71
ag72
ag73
ag74
ag75
ag76
ag77
ag78
ag79
ag80
ag81
ag82
asa(dp323
g2
(lp324
F0.6923076923076923
asg4
(lp325
g59
asg7
(lp326
F0.6923076923076923
asg9
(lp327
g6
ag11
ag12
ag13
ag14
ag15
ag16
ag17
ag18
ag19
ag20
ag21
ag22
ag23
ag24
ag25
ag26
ag27
ag28
ag29
ag30
ag31
ag32
ag33
ag34
ag35
ag36
ag37
ag38
ag39
ag40
ag41
ag42
ag43
ag44
ag45
ag46
ag47
ag48
ag49
ag50
ag51
ag52
ag53
ag54
ag55
ag56
ag57
ag58
ag60
ag61
ag62
ag63
ag64
ag65
ag66
ag67
ag68
ag69
ag70
ag71
ag72
ag73
ag74
ag75
ag76
ag77
ag78
ag79
ag80
ag81
ag82
asa(dp328
g2
(lp329
F0.75
asg4
(lp330
g60
asg7
(lp331
F0.9722222222222222
asg9
(lp332
g6
ag11
ag12
ag13
ag14
ag15
ag16
ag17
ag18
ag19
ag20
ag21
ag22
ag23
ag24
ag25
ag26
ag27
ag28
ag29
ag30
ag31
ag32
ag33
ag34
ag35
ag36
ag37
ag38
ag39
ag40
ag41
ag42
ag43
ag44
ag45
ag46
ag47
ag48
ag49
ag50
ag51
ag52
ag53
ag54
ag55
ag56
ag57
ag58
ag59
ag61
ag62
ag63
ag64
ag65
ag66
ag67
ag68
ag69
ag70
ag71
ag72
ag73
ag74
ag75
ag76
ag77
ag78
ag79
ag80
ag81
ag82
asa(dp333
g2
(lp334
F0.6511627906976745
asg4
(lp335
g61
asg7
(lp336
F0.8372093023255813
asg9
(lp337
g6
ag11
ag12
ag13
ag14
ag15
ag16
ag17
ag18
ag19
ag20
ag21
ag22
ag23
ag24
ag25
ag26
ag27
ag28
ag29
ag30
ag31
ag32
ag33
ag34
ag35
ag36
ag37
ag38
ag39
ag40
ag41
ag42
ag43
ag44
ag45
ag46
ag47
ag48
ag49
ag50
ag51
ag52
ag53
ag54
ag55
ag56
ag57
ag58
ag59
ag60
ag62
ag63
ag64
ag65
ag66
ag67
ag68
ag69
ag70
ag71
ag72
ag73
ag74
ag75
ag76
ag77
ag78
ag79
ag80
ag81
ag82
asa(dp338
g2
(lp339
F0.7333333333333334
asg4
(lp340
g62
asg7
(lp341
F0.8333333333333334
asg9
(lp342
g6
ag11
ag12
ag13
ag14
ag15
ag16
ag17
ag18
ag19
ag20
ag21
ag22
ag23
ag24
ag25
ag26
ag27
ag28
ag29
ag30
ag31
ag32
ag33
ag34
ag35
ag36
ag37
ag38
ag39
ag40
ag41
ag42
ag43
ag44
ag45
ag46
ag47
ag48
ag49
ag50
ag51
ag52
ag53
ag54
ag55
ag56
ag57
ag58
ag59
ag60
ag61
ag63
ag64
ag65
ag66
ag67
ag68
ag69
ag70
ag71
ag72
ag73
ag74
ag75
ag76
ag77
ag78
ag79
ag80
ag81
ag82
asa(dp343
g2
(lp344
F0.7833333333333333
asg4
(lp345
g63
asg7
(lp346
F0.9333333333333333
asg9
(lp347
g6
ag11
ag12
ag13
ag14
ag15
ag16
ag17
ag18
ag19
ag20
ag21
ag22
ag23
ag24
ag25
ag26
ag27
ag28
ag29
ag30
ag31
ag32
ag33
ag34
ag35
ag36
ag37
ag38
ag39
ag40
ag41
ag42
ag43
ag44
ag45
ag46
ag47
ag48
ag49
ag50
ag51
ag52
ag53
ag54
ag55
ag56
ag57
ag58
ag59
ag60
ag61
ag62
ag64
ag65
ag66
ag67
ag68
ag69
ag70
ag71
ag72
ag73
ag74
ag75
ag76
ag77
ag78
ag79
ag80
ag81
ag82
asa(dp348
g2
(lp349
F0.8135593220338984
asg4
(lp350
g64
asg7
(lp351
F0.9322033898305084
asg9
(lp352
g6
ag11
ag12
ag13
ag14
ag15
ag16
ag17
ag18
ag19
ag20
ag21
ag22
ag23
ag24
ag25
ag26
ag27
ag28
ag29
ag30
ag31
ag32
ag33
ag34
ag35
ag36
ag37
ag38
ag39
ag40
ag41
ag42
ag43
ag44
ag45
ag46
ag47
ag48
ag49
ag50
ag51
ag52
ag53
ag54
ag55
ag56
ag57
ag58
ag59
ag60
ag61
ag62
ag63
ag65
ag66
ag67
ag68
ag69
ag70
ag71
ag72
ag73
ag74
ag75
ag76
ag77
ag78
ag79
ag80
ag81
ag82
asa(dp353
g2
(lp354
F0.9473684210526316
asg4
(lp355
g65
asg7
(lp356
F0.8947368421052632
asg9
(lp357
g6
ag11
ag12
ag13
ag14
ag15
ag16
ag17
ag18
ag19
ag20
ag21
ag22
ag23
ag24
ag25
ag26
ag27
ag28
ag29
ag30
ag31
ag32
ag33
ag34
ag35
ag36
ag37
ag38
ag39
ag40
ag41
ag42
ag43
ag44
ag45
ag46
ag47
ag48
ag49
ag50
ag51
ag52
ag53
ag54
ag55
ag56
ag57
ag58
ag59
ag60
ag61
ag62
ag63
ag64
ag66
ag67
ag68
ag69
ag70
ag71
ag72
ag73
ag74
ag75
ag76
ag77
ag78
ag79
ag80
ag81
ag82
asa(dp358
g2
(lp359
F0.7272727272727273
asg4
(lp360
g66
asg7
(lp361
F0.8484848484848485
asg9
(lp362
g6
ag11
ag12
ag13
ag14
ag15
ag16
ag17
ag18
ag19
ag20
ag21
ag22
ag23
ag24
ag25
ag26
ag27
ag28
ag29
ag30
ag31
ag32
ag33
ag34
ag35
ag36
ag37
ag38
ag39
ag40
ag41
ag42
ag43
ag44
ag45
ag46
ag47
ag48
ag49
ag50
ag51
ag52
ag53
ag54
ag55
ag56
ag57
ag58
ag59
ag60
ag61
ag62
ag63
ag64
ag65
ag67
ag68
ag69
ag70
ag71
ag72
ag73
ag74
ag75
ag76
ag77
ag78
ag79
ag80
ag81
ag82
asa(dp363
g2
(lp364
F0.6210526315789473
asg4
(lp365
g67
asg7
(lp366
F0.5157894736842106
asg9
(lp367
g6
ag11
ag12
ag13
ag14
ag15
ag16
ag17
ag18
ag19
ag20
ag21
ag22
ag23
ag24
ag25
ag26
ag27
ag28
ag29
ag30
ag31
ag32
ag33
ag34
ag35
ag36
ag37
ag38
ag39
ag40
ag41
ag42
ag43
ag44
ag45
ag46
ag47
ag48
ag49
ag50
ag51
ag52
ag53
ag54
ag55
ag56
ag57
ag58
ag59
ag60
ag61
ag62
ag63
ag64
ag65
ag66
ag68
ag69
ag70
ag71
ag72
ag73
ag74
ag75
ag76
ag77
ag78
ag79
ag80
ag81
ag82
asa(dp368
g2
(lp369
F0.6190476190476191
asg4
(lp370
g68
asg7
(lp371
F0.5714285714285714
asg9
(lp372
g6
ag11
ag12
ag13
ag14
ag15
ag16
ag17
ag18
ag19
ag20
ag21
ag22
ag23
ag24
ag25
ag26
ag27
ag28
ag29
ag30
ag31
ag32
ag33
ag34
ag35
ag36
ag37
ag38
ag39
ag40
ag41
ag42
ag43
ag44
ag45
ag46
ag47
ag48
ag49
ag50
ag51
ag52
ag53
ag54
ag55
ag56
ag57
ag58
ag59
ag60
ag61
ag62
ag63
ag64
ag65
ag66
ag67
ag69
ag70
ag71
ag72
ag73
ag74
ag75
ag76
ag77
ag78
ag79
ag80
ag81
ag82
asa(dp373
g2
(lp374
F0.5272727272727273
asg4
(lp375
g69
asg7
(lp376
F0.5272727272727273
asg9
(lp377
g6
ag11
ag12
ag13
ag14
ag15
ag16
ag17
ag18
ag19
ag20
ag21
ag22
ag23
ag24
ag25
ag26
ag27
ag28
ag29
ag30
ag31
ag32
ag33
ag34
ag35
ag36
ag37
ag38
ag39
ag40
ag41
ag42
ag43
ag44
ag45
ag46
ag47
ag48
ag49
ag50
ag51
ag52
ag53
ag54
ag55
ag56
ag57
ag58
ag59
ag60
ag61
ag62
ag63
ag64
ag65
ag66
ag67
ag68
ag70
ag71
ag72
ag73
ag74
ag75
ag76
ag77
ag78
ag79
ag80
ag81
ag82
asa(dp378
g2
(lp379
F0.7169811320754718
asg4
(lp380
g70
asg7
(lp381
F0.7735849056603774
asg9
(lp382
g6
ag11
ag12
ag13
ag14
ag15
ag16
ag17
ag18
ag19
ag20
ag21
ag22
ag23
ag24
ag25
ag26
ag27
ag28
ag29
ag30
ag31
ag32
ag33
ag34
ag35
ag36
ag37
ag38
ag39
ag40
ag41
ag42
ag43
ag44
ag45
ag46
ag47
ag48
ag49
ag50
ag51
ag52
ag53
ag54
ag55
ag56
ag57
ag58
ag59
ag60
ag61
ag62
ag63
ag64
ag65
ag66
ag67
ag68
ag69
ag71
ag72
ag73
ag74
ag75
ag76
ag77
ag78
ag79
ag80
ag81
ag82
asa(dp383
g2
(lp384
F0.6666666666666667
asg4
(lp385
g71
asg7
(lp386
F0.6296296296296297
asg9
(lp387
g6
ag11
ag12
ag13
ag14
ag15
ag16
ag17
ag18
ag19
ag20
ag21
ag22
ag23
ag24
ag25
ag26
ag27
ag28
ag29
ag30
ag31
ag32
ag33
ag34
ag35
ag36
ag37
ag38
ag39
ag40
ag41
ag42
ag43
ag44
ag45
ag46
ag47
ag48
ag49
ag50
ag51
ag52
ag53
ag54
ag55
ag56
ag57
ag58
ag59
ag60
ag61
ag62
ag63
ag64
ag65
ag66
ag67
ag68
ag69
ag70
ag72
ag73
ag74
ag75
ag76
ag77
ag78
ag79
ag80
ag81
ag82
asa(dp388
g2
(lp389
F0.5625
asg4
(lp390
g72
asg7
(lp391
F0.5625
asg9
(lp392
g6
ag11
ag12
ag13
ag14
ag15
ag16
ag17
ag18
ag19
ag20
ag21
ag22
ag23
ag24
ag25
ag26
ag27
ag28
ag29
ag30
ag31
ag32
ag33
ag34
ag35
ag36
ag37
ag38
ag39
ag40
ag41
ag42
ag43
ag44
ag45
ag46
ag47
ag48
ag49
ag50
ag51
ag52
ag53
ag54
ag55
ag56
ag57
ag58
ag59
ag60
ag61
ag62
ag63
ag64
ag65
ag66
ag67
ag68
ag69
ag70
ag71
ag73
ag74
ag75
ag76
ag77
ag78
ag79
ag80
ag81
ag82
asa(dp393
g2
(lp394
F0.7619047619047619
asg4
(lp395
g73
asg7
(lp396
F0.8571428571428572
asg9
(lp397
g6
ag11
ag12
ag13
ag14
ag15
ag16
ag17
ag18
ag19
ag20
ag21
ag22
ag23
ag24
ag25
ag26
ag27
ag28
ag29
ag30
ag31
ag32
ag33
ag34
ag35
ag36
ag37
ag38
ag39
ag40
ag41
ag42
ag43
ag44
ag45
ag46
ag47
ag48
ag49
ag50
ag51
ag52
ag53
ag54
ag55
ag56
ag57
ag58
ag59
ag60
ag61
ag62
ag63
ag64
ag65
ag66
ag67
ag68
ag69
ag70
ag71
ag72
ag74
ag75
ag76
ag77
ag78
ag79
ag80
ag81
ag82
asa(dp398
g2
(lp399
F0.8
asg4
(lp400
g74
asg7
(lp401
F0.8571428571428572
asg9
(lp402
g6
ag11
ag12
ag13
ag14
ag15
ag16
ag17
ag18
ag19
ag20
ag21
ag22
ag23
ag24
ag25
ag26
ag27
ag28
ag29
ag30
ag31
ag32
ag33
ag34
ag35
ag36
ag37
ag38
ag39
ag40
ag41
ag42
ag43
ag44
ag45
ag46
ag47
ag48
ag49
ag50
ag51
ag52
ag53
ag54
ag55
ag56
ag57
ag58
ag59
ag60
ag61
ag62
ag63
ag64
ag65
ag66
ag67
ag68
ag69
ag70
ag71
ag72
ag73
ag75
ag76
ag77
ag78
ag79
ag80
ag81
ag82
asa(dp403
g2
(lp404
F0.7272727272727273
asg4
(lp405
g75
asg7
(lp406
F0.7
asg9
(lp407
g6
ag11
ag12
ag13
ag14
ag15
ag16
ag17
ag18
ag19
ag20
ag21
ag22
ag23
ag24
ag25
ag26
ag27
ag28
ag29
ag30
ag31
ag32
ag33
ag34
ag35
ag36
ag37
ag38
ag39
ag40
ag41
ag42
ag43
ag44
ag45
ag46
ag47
ag48
ag49
ag50
ag51
ag52
ag53
ag54
ag55
ag56
ag57
ag58
ag59
ag60
ag61
ag62
ag63
ag64
ag65
ag66
ag67
ag68
ag69
ag70
ag71
ag72
ag73
ag74
ag76
ag77
ag78
ag79
ag80
ag81
ag82
asa(dp408
g2
(lp409
F0.654320987654321
asg4
(lp410
g76
asg7
(lp411
F0.6666666666666667
asg9
(lp412
g6
ag11
ag12
ag13
ag14
ag15
ag16
ag17
ag18
ag19
ag20
ag21
ag22
ag23
ag24
ag25
ag26
ag27
ag28
ag29
ag30
ag31
ag32
ag33
ag34
ag35
ag36
ag37
ag38
ag39
ag40
ag41
ag42
ag43
ag44
ag45
ag46
ag47
ag48
ag49
ag50
ag51
ag52
ag53
ag54
ag55
ag56
ag57
ag58
ag59
ag60
ag61
ag62
ag63
ag64
ag65
ag66
ag67
ag68
ag69
ag70
ag71
ag72
ag73
ag74
ag75
ag77
ag78
ag79
ag80
ag81
ag82
asa(dp413
g2
(lp414
F0.7857142857142857
asg4
(lp415
g77
asg7
(lp416
F0.8809523809523809
asg9
(lp417
g6
ag11
ag12
ag13
ag14
ag15
ag16
ag17
ag18
ag19
ag20
ag21
ag22
ag23
ag24
ag25
ag26
ag27
ag28
ag29
ag30
ag31
ag32
ag33
ag34
ag35
ag36
ag37
ag38
ag39
ag40
ag41
ag42
ag43
ag44
ag45
ag46
ag47
ag48
ag49
ag50
ag51
ag52
ag53
ag54
ag55
ag56
ag57
ag58
ag59
ag60
ag61
ag62
ag63
ag64
ag65
ag66
ag67
ag68
ag69
ag70
ag71
ag72
ag73
ag74
ag75
ag76
ag78
ag79
ag80
ag81
ag82
asa(dp418
g2
(lp419
F0.7391304347826086
asg4
(lp420
g78
asg7
(lp421
F0.782608695652174
asg9
(lp422
g6
ag11
ag12
ag13
ag14
ag15
ag16
ag17
ag18
ag19
ag20
ag21
ag22
ag23
ag24
ag25
ag26
ag27
ag28
ag29
ag30
ag31
ag32
ag33
ag34
ag35
ag36
ag37
ag38
ag39
ag40
ag41
ag42
ag43
ag44
ag45
ag46
ag47
ag48
ag49
ag50
ag51
ag52
ag53
ag54
ag55
ag56
ag57
ag58
ag59
ag60
ag61
ag62
ag63
ag64
ag65
ag66
ag67
ag68
ag69
ag70
ag71
ag72
ag73
ag74
ag75
ag76
ag77
ag79
ag80
ag81
ag82
asa(dp423
g2
(lp424
F0.9166666666666666
asg4
(lp425
g79
asg7
(lp426
F0.8611111111111112
asg9
(lp427
g6
ag11
ag12
ag13
ag14
ag15
ag16
ag17
ag18
ag19
ag20
ag21
ag22
ag23
ag24
ag25
ag26
ag27
ag28
ag29
ag30
ag31
ag32
ag33
ag34
ag35
ag36
ag37
ag38
ag39
ag40
ag41
ag42
ag43
ag44
ag45
ag46
ag47
ag48
ag49
ag50
ag51
ag52
ag53
ag54
ag55
ag56
ag57
ag58
ag59
ag60
ag61
ag62
ag63
ag64
ag65
ag66
ag67
ag68
ag69
ag70
ag71
ag72
ag73
ag74
ag75
ag76
ag77
ag78
ag80
ag81
ag82
asa(dp428
g2
(lp429
F0.8837209302325582
asg4
(lp430
g80
asg7
(lp431
F0.872093023255814
asg9
(lp432
g6
ag11
ag12
ag13
ag14
ag15
ag16
ag17
ag18
ag19
ag20
ag21
ag22
ag23
ag24
ag25
ag26
ag27
ag28
ag29
ag30
ag31
ag32
ag33
ag34
ag35
ag36
ag37
ag38
ag39
ag40
ag41
ag42
ag43
ag44
ag45
ag46
ag47
ag48
ag49
ag50
ag51
ag52
ag53
ag54
ag55
ag56
ag57
ag58
ag59
ag60
ag61
ag62
ag63
ag64
ag65
ag66
ag67
ag68
ag69
ag70
ag71
ag72
ag73
ag74
ag75
ag76
ag77
ag78
ag79
ag81
ag82
asa(dp433
g2
(lp434
F0.7352941176470589
asg4
(lp435
g81
asg7
(lp436
F0.7647058823529411
asg9
(lp437
g6
ag11
ag12
ag13
ag14
ag15
ag16
ag17
ag18
ag19
ag20
ag21
ag22
ag23
ag24
ag25
ag26
ag27
ag28
ag29
ag30
ag31
ag32
ag33
ag34
ag35
ag36
ag37
ag38
ag39
ag40
ag41
ag42
ag43
ag44
ag45
ag46
ag47
ag48
ag49
ag50
ag51
ag52
ag53
ag54
ag55
ag56
ag57
ag58
ag59
ag60
ag61
ag62
ag63
ag64
ag65
ag66
ag67
ag68
ag69
ag70
ag71
ag72
ag73
ag74
ag75
ag76
ag77
ag78
ag79
ag80
ag82
asa(dp438
g2
(lp439
F0.96
asg4
(lp440
g82
asg7
(lp441
F0.96
asg9
(lp442
g6
ag11
ag12
ag13
ag14
ag15
ag16
ag17
ag18
ag19
ag20
ag21
ag22
ag23
ag24
ag25
ag26
ag27
ag28
ag29
ag30
ag31
ag32
ag33
ag34
ag35
ag36
ag37
ag38
ag39
ag40
ag41
ag42
ag43
ag44
ag45
ag46
ag47
ag48
ag49
ag50
ag51
ag52
ag53
ag54
ag55
ag56
ag57
ag58
ag59
ag60
ag61
ag62
ag63
ag64
ag65
ag66
ag67
ag68
ag69
ag70
ag71
ag72
ag73
ag74
ag75
ag76
ag77
ag78
ag79
ag80
ag81
asa.